This is a file that shows how I restored the Royal Cup, the Gigadramon sprite and a few other changes done to fit the hack.


//This is the function in charge of setting up and creating the tournaments
//This change is just to get rewards from the Royal Cup since it doesn't have any in the script and adding them would be a lot of work (if its even possible)

Original:

void CreateTournament(void)
{
//code ignored

  if (currentTournament == 5)  //I'm not sure why this is here, maybe the Royal Cup was supposed to only have 2 battles.
    requiredWins = 2;   
  
  else 
    requiredWins = 3;
  

//code ignored

}


Changed:

void CreateTournament(void)
{
//code ignored

  if (currentTournament == 5) //I'm just taking advantage of the old code
    WritePStat(3,4);  //change the tournament with the S class tournament
  
  

//code ignored

}




Disassembly:

                         CreateTournament  

         Offset       Hex         Command          

Original:        

        800e6c40 05 00 41 12     beq        s2,at,0x800e6c58
        800e6c44 00 00 00 00     _nop
        800e6c48 03 00 02 24     li         v0,0x3
        800e6c4c 00 14 02 00     sll        v0,v0,0x10
        800e6c50 04 00 00 10     b          0x800e6c64
        800e6c54 03 14 02 00     _sra       v0,v0,0x10
                             LAB_800e6c58                                    
        800e6c58 02 00 02 24     li         v0,0x2


Changed:

        800e6c40 05 00 41 16     bne        s2,at,0x800e6c58
        800e6c44 00 00 00 00     _nop
        800e6c48 03 00 04 24     li         a0,0x3
        800e6c4c 1d 19 04 0c     jal        0x0x80106474 //WritePStat                                       
        800e6c50 04 00 05 24     _li        a1,0x4
        800e6c54 00 00 00 00     nop
                             LAB_800e6c58                                    
        800e6c58 03 00 02 24     li         v0,0x3




//This function is more or less the main loop of the tournament
//The change is to allow the three extra digimon to appear and to avoid a possible bug

Original:

int StartTournament(pointer *dataOffset)  //That pointer holds the tournament value and the digimon NPC that will participate

{
  
  for (iVar2 = 1; iVar2 < 8; iVar2 = iVar2 + 1)   //Yes, it makes sure the 3 extra never appear in the tournaments
  {
    if (dataOffset[iVar2] == 63)  
      dataOffset[iVar2] = 48;

    if (dataOffset1[iVar2] == 64) 
      dataOffset[iVar2] = 54;

    if (dataOffset[iVar2] == 65) 
      dataOffset[iVar2] = 42;    
  }

}


Changed:

int StartTournament(pointer *dataOffset)

{
  
  for (iVar2 = 1; iVar2 < 8; iVar2 = iVar2 + 1)
  {
    if (dataOffset[iVar2] == 62 || dataOffset[iVar2] == 0) //It will crash without this (or just not render anything) if by any chance it has choosen WereGarurumon
      dataOffset[iVar2] = 115; //Machinedramon
    
  }
//code ignored
}


Disassembly:

                       StartTournament  

         Offset       Hex         Command   

Original:

        800579fc 17 00 00 10     b          0x80057a5c
        80057a00 01 00 04 24     _li        a0,0x1
                             LAB_80057a04                                   
        80057a04 21 18 a4 02     addu       v1,s5,a0
        80057a08 00 00 62 90     lbu        v0,0x0(v1)
        80057a0c 40 00 01 24     li         at,0x40
        80057a10 03 00 41 14     bne        v0,at,0x80057a20
        80057a14 00 00 00 00     _nop
        80057a18 36 00 02 24     li         v0,0x36
        80057a1c 00 00 62 a0     sb         v0,0x0(v1)
                             LAB_80057a20                                   
        80057a20 21 18 a4 02     addu       v1,s5,a0
        80057a24 00 00 62 90     lbu        v0,0x0(v1)
        80057a28 3f 00 01 24     li         at,0x3f
        80057a2c 03 00 41 14     bne        v0,at,0x80057a3c
        80057a30 00 00 00 00     _nop
        80057a34 30 00 02 24     li         v0,0x30
        80057a38 00 00 62 a0     sb         v0,0x0(v1)
                             LAB_80057a3c                                 
        80057a3c 21 18 a4 02     addu       v1,s5,a0
        80057a40 00 00 62 90     lbu        v0,0x0(v1)
        80057a44 41 00 01 24     li         at,0x41
        80057a48 03 00 41 14     bne        v0,at,0x80057a58
        80057a4c 00 00 00 00     _nop
        80057a50 2a 00 02 24     li         v0,0x2a
        80057a54 00 00 62 a0     sb         v0,0x0(v1)
                             LAB_80057a58                                    
        80057a58 01 00 84 20     addi       a0,a0,0x1
                             LAB_80057a5c                                  
        80057a5c 08 00 81 28     slti       at,a0,0x8
        80057a60 e8 ff 20 14     bne        at,zero,0x80057a04
        80057a64 00 00 00 00     _nop




Changed:
        800579fc 0a 00 00 10     b          0x80057a28
        80057a00 01 00 04 24     _li        a0,0x1
        80057a04 00 00 00 00     nop
                             LAB_80057a08                                   
        80057a08 21 18 a4 02     addu       v1,s5,a0
        80057a0c 00 00 62 90     lbu        v0,0x0(v1)
        80057a10 04 00 02 10     beq        zero,v0,0x80057a24
        80057a14 00 00 00 00     _nop
        80057a18 3e 00 01 24     li         at,0x3e
        80057a1c 03 00 41 14     bne        v0,at,0x80057a2c
        80057a20 00 00 00 00     _nop
                             LAB_80057a24                                    
        80057a24 73 00 02 24     li         v0,0x73
        80057a28 00 00 62 a0     sb         v0,0x0(v1)
                             LAB_80057a2c                                 
        80057a2c 01 00 84 20     addi       a0,a0,0x1
                             LAB_80057a30                                   
        80057a30 08 00 81 28     slti       at,a0,0x8
        80057a34 f4 ff 20 14     bne        at,zero,0x80057a08
        80057a38 00 00 00 00     _nop
        80057a3c 00 00 00 00     nop       //just some empty commands
        80057a40 00 00 00 00     nop
        80057a44 00 00 00 00     nop
        80057a48 00 00 00 00     nop
        80057a4c 00 00 00 00     nop
        80057a50 00 00 00 00     nop
        80057a54 00 00 00 00     nop
        80057a58 00 00 00 00     nop
        80057a5c 00 00 00 00     nop
        80057a60 00 00 00 00     nop
        80057a64 00 00 00 00     nop



//Just a quick change to ensure the other digimon can have stats (Fresh, In-Training...)
//This function sets the stats of your current Opponent in the tournament and other stuff

Original:

void SetRival(int param_1,int param_2,int param_3)

{

//code ignored


  if (DigimonLevel == 5)
  {
    StatDivisor = 10; 
    StatMultiplier = 25;
  }
  else if (DigimonLevel == 4)
  {
    StatDivisor = 1;
    StatMultiplier = 2;
  }
  else if (DigimonLevel == 3)
  {
    StatDivisor = 1;
    StatMultiplier = 1;
  }

//code ignored

}


Changed:

void SetRival(int param_1,int param_2,int param_3)

{

//code ignored

  StatDivisor = 1;
  StatMultiplier = 4;

 if (DigimonLevel == 5)
  {
    StatDivisor = 10; 
    StatMultiplier = 25;
  }
  else if (DigimonLevel == 4)
  {
    StatDivisor = 1;
    StatMultiplier = 2;
  }
  else if (DigimonLevel == 3)
  {
    StatDivisor = 1;
    StatMultiplier = 1;
  }

//code ignored

}

Disassembly:

                           SetRival  

         Offset       Hex         Command   

Original:

        80056ee0 00 00 43 8c     lw         v1,0x0(v0)
        80056ee4 00 00 00 00     nop
        80056ee8 40 10 03 00     sll        v0,v1,0x1
        80056eec 20 10 43 00     add        v0,v0,v1
        80056ef0 80 10 02 00     sll        v0,v0,0x2
        80056ef4 20 10 43 00     add        v0,v0,v1
        80056ef8 80 18 02 00     sll        v1,v0,0x2
        80056efc 13 80 02 3c     lui        v0,0x8013
        80056f00 d1 ce 42 24     addiu      v0,v0,-0x312f
        80056f04 21 10 43 00     addu       v0,v0,v1
        80056f08 00 00 42 90     lbu        v0,0x0(v0)=>DigimonLevel
        80056f0c 00 00 00 00     nop


Changed:
        80056ee0 00 00 43 8c     lw         v1,0x0(v0)
        80056ee4 01 00 13 24     li         s3,0x1     //Change 1
        80056ee8 40 10 03 00     sll        v0,v1,0x1
        80056eec 20 10 43 00     add        v0,v0,v1
        80056ef0 80 10 02 00     sll        v0,v0,0x2
        80056ef4 20 10 43 00     add        v0,v0,v1
        80056ef8 80 18 02 00     sll        v1,v0,0x2
        80056efc 13 80 02 3c     lui        v0,0x8013
        80056f00 d1 ce 42 24     addiu      v0,v0,-0x312f
        80056f04 21 10 43 00     addu       v0,v0,v1
        80056f08 00 00 42 90     lbu        v0,0x0(v0) //DigimonLevel
        80056f0c 04 00 11 24     li         s1,0x4   //Change 2



//This function populates the data of each digimon to set the mini sprites and does other stuff
//I'm just making the sprite use Machinedramon in case the player uses WereGarurumon

Original:

void SetMiniTournamentSpritesData(undefined *param_1,int param_2)

{
  bGpffff9621 = ReturnRandom(8); //Set a random position in the tournament for your digimon

   //gp0xffff9624 place in memory where the sprite value for each digimon in the tournament is stored

  (&gp0xffff9624)[bGpffff9621] = DigimonValue; //Store the digimon in that position

  iVar6 = param_2 + 1;
  for (iVar4 = 1; iVar4 < 8; iVar4 = iVar4 + 1)  //Randomize positions
  {
    iVar2 = ReturnRandom(7);
    SwapByte(iVar6,param_2 + iVar2 + 1);
    iVar6 = iVar6 + 1;
  }

//code ignored
}


Changed:

void SetMiniTournamentSpritesData(undefined *param_1,int param_2)

{

  iVar2 = ReturnRandom(8);
  bGpffff9621 = iVar2;
  puVar6 = param_2 + 1;
  for (iVar2 = 1; iVar2 < 8; iVar2 = iVar2 + 1)
  {
    iVar7 = ReturnRandom(7);
    SwapByte(puVar6,(param_2 + iVar7 + 1));
    puVar6 = puVar6 + 1;
  }
  uVar4 = bGpffff9621;   //Gets the value where you are supposed to be
  iVar2 = ReadPStat(4);  //Reads the digimon from the PStat
  uVar5 = 0;
  if (iVar2 == 62)   //If the digimon is WereGarurumon
    iVar2 = 112;      //Read the sprite 112 (Machinedramon)
  
  (&gp0xffff9624)[uVar4] = iVar2; //Store the digimon in that position

//code ignored
}


Disassembly:

                  SetMiniTournamentSpritesData

         Offset       Hex         Command   

Original:
        8005da1c 21 96 82 a3     sb         v0,-0x69df(gp)
        8005da20 13 80 01 3c     lui        at,0x8013
        8005da24 48 f3 22 8c     lw         v0,-0xcb8(at) //DigimonPointer
        8005da28 21 96 83 93     lbu        v1,-0x69df(gp)
        8005da2c 00 00 44 8c     lw         a0,0x0(v0)   //DigimonValue
        8005da30 01 00 10 24     li         s0,0x1
        8005da34 24 96 82 27     addiu      v0,gp,-0x69dc
        8005da38 21 10 43 00     addu       v0,v0,v1
        8005da3c 00 00 44 a0     sb         a0,0x0(v0)
        8005da40 09 00 00 10     b          0x8005da68
        8005da44 01 00 51 26     _addiu     s1,s2,0x1
                             LAB_8005da48                                   
        8005da48 b5 8d 02 0c     jal        0x800a36d4 //ReturnRandom  
        8005da4c 07 00 04 24     _li        a0,0x7
        8005da50 01 00 42 20     addi       v0,v0,0x1
        8005da54 21 28 42 02     addu       a1,s2,v0
        8005da58 a4 94 03 0c     jal        0x800e5290 //SwapByte  
        8005da5c 21 20 20 02     _move      a0,s1
        8005da60 01 00 10 22     addi       s0,s0,0x1
        8005da64 01 00 31 26     addiu      s1,s1,0x1
                             LAB_8005da68                                    
        8005da68 08 00 01 2a     slti       at,s0,0x8
        8005da6c f6 ff 20 14     bne        at,zero,0x8005da48
        8005da70 00 00 00 00     _nop
        8005da74 21 96 85 93     lbu        a1,-0x69df(gp)
        8005da78 01 00 44 26     addiu      a0,s2,0x1
        8005da7c 0a 00 00 10     b          0x8005daa8
        8005da80 21 80 00 00     _clear     s0
                             LAB_8005da84                                 
        8005da84 07 00 05 12     beq        s0,a1,0x8005daa4
        8005da88 00 00 00 00     _nop
        8005da8c 00 00 83 90     lbu        v1,0x0(a0)
        8005da90 01 00 82 24     addiu      v0,a0,0x1
        8005da94 21 20 40 00     move       a0,v0
        8005da98 24 96 82 27     addiu      v0,gp,-0x69dc
        8005da9c 21 10 50 00     addu       v0,v0,s0
        8005daa0 00 00 43 a0     sb         v1,0x0(v0)
                             LAB_8005daa4                                 
        8005daa4 01 00 10 22     addi       s0,s0,0x1
                             LAB_8005daa8                                    
        8005daa8 08 00 01 2a     slti       at,s0,0x8
        8005daac f5 ff 20 14     bne        at,zero,0x8005da84


Changed:

        8005da1c 01 00 10 24     li         s0,0x1
        8005da20 21 96 82 a3     sb         v0,-0x69df(gp)
        8005da24 09 00 00 10     b          0x8005da4c
        8005da28 01 00 51 26     _addiu     s1,s2,0x1
                             LAB_8005da2c                                  
        8005da2c b5 8d 02 0c     jal        0x800a36d4 //ReturnRandom                                    
        8005da30 07 00 04 24     _li        a0,0x7
        8005da34 01 00 42 20     addi       v0,v0,0x1
        8005da38 21 28 42 02     addu       a1,s2,v0
        8005da3c a4 94 03 0c     jal        0x800e5290 //SwapByte                                         
        8005da40 21 20 20 02     _move      a0,s1
        8005da44 01 00 10 22     addi       s0,s0,0x1
        8005da48 01 00 31 26     addiu      s1,s1,0x1
                             LAB_8005da4c                                     
        8005da4c 08 00 01 2a     slti       at,s0,0x8
        8005da50 f6 ff 20 14     bne        at,zero,0x8005da2c
        8005da54 00 00 00 00     _nop
        8005da58 21 96 85 93     lbu        a1,-0x69df(gp)
        8005da5c b8 18 04 0c     jal        0x801062e0 //ReadPStat                                        
        8005da60 04 00 04 24     _li        a0,0x4
        8005da64 20 18 bc 00     add        v1,a1,gp
        8005da68 21 80 00 00     clear      s0
        8005da6c 3e 00 01 24     li         at,0x3e
        8005da70 02 00 22 14     bne        at,v0,LAB_8005da7c
        8005da74 00 00 00 00     _nop
        8005da78 70 00 02 24     li         v0,0x70
                             LAB_8005da7c                                    
        8005da7c 24 96 62 a0     sb         v0,-0x69dc(v1)
        8005da80 09 00 00 10     b          0x8005daa8
        8005da84 01 00 44 26     _addiu     a0,s2,0x1
                             LAB_8005da88                                   
        8005da88 06 00 05 12     beq        s0,a1,LAB_8005daa4
        8005da8c 00 00 00 00     _nop
        8005da90 00 00 83 90     lbu        v1,0x0(a0)
        8005da94 24 96 82 27     addiu      v0,gp,-0x69dc
        8005da98 21 10 50 00     addu       v0,v0,s0
        8005da9c 01 00 84 24     addiu      a0,a0,0x1
        8005daa0 00 00 43 a0     sb         v1,0x0(v0)
                             LAB_8005daa4                                      
        8005daa4 01 00 10 22     addi       s0,s0,0x1
                             LAB_8005daa8                                      
        8005daa8 08 00 01 2a     slti       at,s0,0x8
        8005daac f6 ff 20 14     bne        at,zero,0x8005da88



//Gigadramon not displaying fix
//This function is just to set the render data for each mini sprite each frame

void SetMiniSpriteRenderData(int CurrentSprite)

{

  
  DigimonValue = (&gp0xffff9624)[CurrentSprite]; 

//code ignored

//Here the digimon value is copied to another variable and then divided by 64, this comes with an issue
//Gigadramon which uses the value 64, when divided by 64, it gives 1.
//The issue with this is that the value is used to determine which part of the sheet it should look at, Gigadramon is located at the sheet 0
//But the code is set to look at the sheet 1

  DigimonValue = DigimonValue - 1;

//code ignored
}


void SetMiniSpriteRenderData(int param_1)

{

  
  DigimonValue = (&gp0xffff9624)[CurrentSprite]; 

//code ignored

DigimonValue = DigimonValue - 1;

//code ignored
//The division happens here
//Since now the value becomes 63, the division will give a 0, which solves the issue
//MetalEtemon which is the start of the second sheet, will give a 1 as intended

}

Disassembly:

                  SetMiniSpriteRenderData

         Offset       Hex         Command   

Original:

                             LAB_8005d5b0                                   
        8005d5b0 21 a0 20 02     move       s4,s1
        8005d5b4 03 00 21 06     bgez       s1,0x8005d5c4
        8005d5b8 83 c9 11 00     _sra       t9,s1,0x6
        8005d5bc 3f 00 22 26     addiu      v0,s1,0x3f
        8005d5c0 83 c9 02 00     sra        t9,v0,0x6



        8005d660 ff ff 83 22     addi       v1,s4,-0x1  //second change


Changed:

                             LAB_8005d5b0                                   
        8005d5b0 ff ff 34 26     addiu      s4,s1,-0x1
        8005d5b4 03 00 21 06     bgez       s1,0x8005d5c4
        8005d5b8 83 c9 14 00     _sra       t9,s4,0x6
        8005d5bc 3f 00 82 26     addiu      v0,s4,0x3f
        8005d5c0 83 c9 02 00     sra        t9,v0,0x6


        8005d660 21 18 14 00     move       v1,s4 //second change




//This is just a SpriteSheet I modified to render properly Machinedramon, you could copy, remove the extra data whic acts as a copy protection and save it as a TIM, then use a TIM viewer to see the SpriteSheet

14A0EB48 spritesheet:
10 00 00 00 08 00 00 00 0C 02 00 00 30 01 E0 01 10 00 10 00 00 00 9D 17 4B 05 59 16 00 03 5B 01 14 00 3C 4B 13 6C 0A 00 FF 7F EF 3D 0D 5D 05 48 44 04 00 00 00 00 9D 97 4B 85 59 96 00 83 80 81 14 80 3C CB 13 EC
0A 80 FF FF EF BD 24 E1 C0 B0 44 84 00 00 00 00 9D 97 EB 84 98 80 00 B7 80 99 14 80 3E EA 19 E0 0E AC FF FF B7 FF 2D EE 04 B9 44 84 00 00 00 00 9D 97 4B 85 75 A6 00 B7 80 99 14 80 19 82 B1 A8 0A 80 FF FF EF BD 
E7 9C 84 90 44 84 00 00 00 00 CB 80 87 80 30 81 D7 82 31 82 14 80 96 AE 00 B7 B7 FF FF FF EF BD E7 9C 84 90 44 84 00 00 00 00 9D 97 4B 85 59 96 00 83 5B 81 14 80 3C CB 13 EC 0A 80 FF FF EF BD 0D DD 05 C8 44 84 
00 00 00 00 CB 80 87 80 30 81 D7 82 31 82 14 80 96 AE 24 E1 C0 B0 FF FF EF BD E7 9C 84 90 44 84 00 00 00 00 00 00 00 00 00 00 00 00 00 00 00 00 00 00 00 00 00 00 00 00 00 00 00 00 00 00 00 00 00 00 00 00 00 00 
00 00 00 00 00 00 00 00 00 00 00 00 00 00 00 00 00 00 00 00 00 00 00 00 00 00 00 00 00 00 00 00 00 00 00 00 00 00 00 00 00 00 00 00 00 00 00 00 00 00 00 00 00 00 00 00 00 00 00 00 00 00 00 00 00 00 00 00 00 00 
00 00 00 00 00 00 00 00 00 00 00 00 00 00 00 00 00 00 00 00 00 00 00 00 00 00 00 00 00 00 00 00 00 00 00 00 00 00 00 00 00 00 00 00 00 00 00 00 00 00 00 00 00 00 00 00 00 00 00 00 00 00 00 00 00 00 00 00 00 00 
00 00 00 00 00 00 00 00 00 00 00 00 00 00 00 00 00 00 00 00 00 00 00 00 00 00 00 00 00 00 00 00 00 00 00 00 00 00 00 00 00 00 00 00 00 00 00 00 00 00 00 00 00 00 00 00 00 00 00 00 00 00 00 00 00 00 00 00 00 00 
00 00 00 00 00 00 00 00 00 00 00 00 00 00 00 00 00 00 00 00 00 00 00 00 00 00 00 00 00 00 00 00 00 00 00 00 00 00 00 00 00 00 0C 80 00 00 C0 03 00 00 40 00 00 01 00 00 E0 EE EE 0E 00 00 00 00 E0 EE EE 0E 00 00 
00 00 E0 EE EE 0E 00 00 00 00 E0 EE EE 0E 00 00 EE 00 00 00 00 00 EE 0E 00 00 00 00 00 00 00 00 00 00 00 00 00 00 00 00 00 00 00 00 00 00 00 00 00 E0 00 00 00 0E EE 00 00 00 00 00 00 00 00 00 00 EE 0E 00 00 E0 
EE 00 00 00 00 00 00 00 00 00 00 00 00 00 00 00 00 00 00 00 00 00 00 00 00 00 00 E0 0E EE EE 0E 00 00 00 00 00 00 00 00 00 00 00 00 EE EA CB ED 00 00 00 00 EE AA CE ED 00 00 0E 00 1E 3E 2E E9 00 E0 0E 00 1E 3E 
2E E9 00 E0 BE 0E 0E 00 00 EE AA EA 00 00 00 00 00 00 00 00 00 00 00 00 00 00 00 00 00 00 00 00 00 00 00 00 00 3E 0E EE EE E1 31 0E 00 E0 00 00 00 0E EE 00 E0 37 EE EE EE EE 77 0E 00 EE 0E 00 00 E0 EE 00 00 00 
E0 EE EE 00 00 00 00 00 00 00 00 00 00 00 00 E0 EA EB BE EE 00 00 00 00 00 00 00 00 00 00 E0 EE EE EE EE EE EE 0E 00 E0 EE EE EE EE 0E 00 EE EE 66 E6 66 96 EE EE EE EE 66 E6 66 96 EE EE E0 EB EB 00 E0 AA BB 0E 
E0 EE EE 0E EE EE EE 0E 00 00 00 EE EE 00 00 00 00 00 00 00 00 00 00 00 00 5E E1 AA BA 5E E5 00 00 3E 0E EE EE E1 31 0E E0 E7 11 11 11 11 3E 0E E0 37 EE EE EE EE 77 0E 00 00 AE AA BA 0E 00 00 00 00 E0 EE EE 00 
00 00 E0 EE EC DE ED EE 0E 00 00 00 EE E0 EE EE 00 00 AE EA AE BB CB ED AE EA E0 EE AE BB CB ED EE 0E 6E EE 6E 66 66 9E EE E6 6E EE 6E 66 66 9E EE E6 E0 EE EE 0E AE BB EE 00 AE 1E AE E4 BB AA AA EA 00 00 E0 AA 
EA EE EE 00 00 00 00 EE EE 00 00 00 00 E0 AE BB BB EE 0E 0E 00 5E E1 AA BA 5E E5 00 E0 1E 16 33 13 16 3E 0E E0 E7 11 11 11 11 3E 0E 00 E0 AE EE AA EB 00 00 00 00 AE AA BA 0E 00 00 E0 CE CE EC DD DD 0E 00 00 00 
AE BE EE BB 0E 00 AE EB EE EE EE EE BA EA AE EA EA EE EA EE AA EA 6E EE E6 66 E6 96 EE E6 6E EE E6 66 E6 96 EE E6 AE 1E AE E4 BB EE AA 0E 4E 1E 4E E4 BE EE EE 0E 00 EE AE BA BB AE EA 0E 00 00 E0 AA EA EE EE 00 
E0 00 EE EB BE BB EE E5 00 E0 AE BB BB EE 0E 0E 00 1E 66 11 61 16 E1 0E E0 1E 16 33 13 16 3E 0E E0 AE AA ED AE EB 00 00 00 E0 AE EE AA EB 00 00 00 EE CC EE DC EE 0E 0E 00 EE CE EE DC EE EE 00 AE EE EA EE EA EE 
EE EB AE EE EE EB EE EE BE EA E0 E6 66 66 66 99 EE E9 6E EE 66 66 66 99 EE E9 4E 1E 4E E4 EE BB BB EA E0 EA EA 2E E1 BB AA 0E 00 AE AE BB BB EB AB 0E 00 EE AE BA BB AE EA 0E 5E EE BA BB BB EE 15 0E E0 00 EE EB 
BE BB EE E5 00 1E 11 77 17 11 E1 00 00 1E 66 11 61 16 E1 0E A0 AA AA DE AE BA 0E 00 E0 AE AA ED AE EB 00 00 00 EE CC CE EC ED EE 0E 00 EE EC CC CE DD ED 00 AE EC EE EB EE EE CD EB AE EB BA BE CB ED CD EA E0 E9 
BB EB EE EE 9E 0E EE E9 EB EE EE CE 9E EE E0 EA EA 2E E1 EE EE 0E 1E AE 1E E1 12 EE BE EA 00 AE AB BB BB BB BB 0E 00 AE AE BB BB EB AB 0E 5E AE BB BB EE E5 53 E1 5E EE BA BB BB EE 15 0E 00 1E 77 EE 7E 77 E1 00 
00 1E 11 77 17 11 E1 00 E0 EE AB AA AA BA 0E 00 AE AA AA DE AE BA 0E 00 0E CE CC EC EE ED AE 0E 00 E0 CE EC CE EC EE 0E E0 EB BA BE CB ED BC 0E AE EB EE EE EE ED BC EB 00 EE EB 9E 69 96 9E 0E E0 EE AB BB AB CB 
EE 0E 1E 6E 1E E1 12 0E 00 00 1E EE 1E E2 12 0E E0 0E 00 AE BB BE EB BB EC 0E 00 AE AB BB BB BB BB 0E CC 51 EB CB BA DF 0F 00 B6 A4 C4 28 C7 9A 4D C7 25 2B C5 95 C6 E3 FC A0 86 31 6D 4D 22 B8 84 22 12 B3 CB AD 
FC 26 96 78 2F 5D C2 89 7C 32 25 4B 9C 02 51 27 7F 79 9F 49 D4 C8 4F 3E FE E0 38 01 47 1A 60 73 F7 77 A1 44 C8 EB 83 C7 EF 74 DD 19 36 D7 61 83 66 3B A3 70 00 A7 80 94 8F AD 02 46 F1 67 55 70 92 B8 0F 5C A3 1D 
92 07 A7 2E 38 A2 9E 57 F0 88 65 BF 4C 46 EE 0A 51 D5 45 67 1C 27 E9 AE 0B DF 89 D2 07 82 9F 52 FA B4 C3 10 9D 34 82 D0 8F 90 F4 3A 5E 2E E6 77 66 BE 39 A4 61 E5 AB 31 E1 13 C3 88 48 0B EF 60 FD 3A 23 D1 45 B2 
25 B6 71 EE 1C B7 58 D3 17 6E 5E EE C9 8B 9C 31 27 E8 4F 2E 3A 70 30 36 62 32 F2 47 CE FE 48 EA 85 6C 0C 1B 5C DB CE 42 72 51 D2 92 1F BC F1 AC 7B 55 56 8F F6 31 B6 91 E6 AD 9B 11 91 FC 3F 62 9F 8D C4 B3 7A B3 
34 84 75 70 6C 23 16 19 0A 65 08 56 05 D4 A0 37 06 B8 62 BA F2 41 F5 BE AF 1E 13 91 A7 EC 4D 63 1B EC 00 FF FF FF FF FF FF FF FF FF FF 00 32 43 73 02 00 00 08 00 00 00 08 00 E0 BE BE EE 55 E3 3E E5 5E AE BB BB 
EE E5 53 E1 00 E0 E7 E7 77 7E 0E 00 00 1E 77 EE 7E 77 E1 00 E0 AA AA AA AA BB 0E 00 EE EE AB AA AA BA 0E 00 EE E0 EE AE EE ED EE 0E E0 EE CE EC CC DE EE 0E 00 EE BA BB DC ED EE 00 E0 EE EE EE EE EE EE 0E 00 00 
6E 69 96 E9 EE 00 AE EB BE BB BB EC BE EA 1E EE 1E E2 12 0E 00 00 E0 0E 2E 2E E2 0E 00 00 00 AE BB BE EB CB EE 00 00 AE BB BE EB BB EC 0E 1E EE E0 99 1E 6E E3 E5 E0 BE BE EE 55 E3 E1 E5 00 3E 77 7E EE 77 E1 00 
00 E0 E7 E7 77 7E 0E EE 00 EE EE BE BA EB 00 00 E0 AA AA AA AA BA 0E 00 AE EE E9 E6 E6 ED CD EC CE EC CC CC CC DE AE 0E E0 EA EE EE EE EE BB 0E E0 EB EE BA EC ED BB EC 00 E0 96 66 99 9E E6 00 EE 85 EE EE EE 9E 
58 EE E0 AE 2E 2E E2 0E 00 00 1E 0E E0 EE 1E 0E 00 00 00 BE BB BB BB BB EC 00 00 AE BB BE EB CB EE 00 3E E5 E0 66 1E 3E 1E E3 3E E1 E3 31 E3 3E 1E E3 E0 13 71 77 77 E7 13 0E 00 3E 77 7E EE 77 E1 EA 00 E0 BE AB 
EA EA 00 00 00 EE EE EE AB EB 00 00 E0 AE AE AE EE ED DD EC CE EE EE EE EE DD EE 0E AE BB EC DC ED BB EB 0E E0 EE CB EE DE BE BC EC 00 E0 69 96 E9 69 E6 00 9E 9E 2E 5E 5E 92 E9 E9 1E EE E0 EE 1E 0E 00 00 EE 0E 
1E 0E 2E E1 00 0E 00 EE BB EB BE BB EC 00 00 BE BB BB BB BB EC 00 5E E1 1E EE 53 EE 1E E3 5E E1 1E E3 5E 51 1E E3 E0 11 77 7E 7E AE A1 0E E0 13 71 77 77 17 31 E1 00 AE AE AA AE BB 0E 00 00 E0 BE BB EB EA 00 00 
CE EE EE EE DE ED EE ED BE ED CC DC DD ED CD 0E EE EE EC DC ED EB BE 0E 00 AE CB DD DD CE CE EC 00 E0 69 99 9E 66 E9 00 6E E9 1E 55 55 E1 9E E6 EE 0E 1E 0E 2E E1 00 0E 1E E2 E1 00 E0 E2 E0 E1 00 E0 BB BE EB BB 
EC 00 00 EE BB EB BE BB EC 00 E0 0E EE 31 EE 33 E1 0E E0 0E EE 5E 15 35 E1 0E 00 1E 77 E7 77 EE EE 0E E0 11 77 7E 7E 77 11 0E 00 EE AE AA EE BE 0E 00 00 AE AE AA AE BB 0E 00 BE CE CC DC DD EE CC ED BE DB EE EE 
EE DE CD 0E E0 EE EE DC DD DE ED 00 00 AE DC ED DC EE EE 0E 00 9E 66 99 9E 66 E9 00 6E 96 EE EE EE EE 99 E6 1E E2 E1 00 E0 E2 E0 E1 1E EE 21 0E 00 2E EE 0E 00 E0 BE BB BB CB EE 00 00 E0 BB BE EB BB EC 00 00 E0 
55 EE 55 5E E3 00 00 E0 55 EE 53 5E E3 00 00 E0 77 7E 7E 77 E1 00 00 1E 77 E7 77 77 E1 00 00 00 EE BA BB AE EB 00 00 AE AE BA AE BE 0E 00 EE ED EE EE EE ED DC 0E E0 EE CC DD CE EC CD 0E 00 E0 CE DE ED DE 0E 00 
00 AE DC ED CB ED 00 00 00 6E 96 E9 99 66 99 0E 6E 96 8E E9 8E E9 69 E6 1E EE 21 0E 00 2E EE 0E E0 E2 E1 E2 00 E0 E2 E1 00 AE EB CC CC EC BA 0E 00 AE BE BB BB CB AE 0E 00 EE 51 E1 E3 35 E1 0E 00 EE 51 E1 E5 35 
E1 0E 00 3E 71 77 77 37 13 0E 00 E0 73 7E 7E 37 13 0E 00 EE BA EE EE AA EB 00 00 EE EA BB EB BA EB 00 CE DC 9E CE DC ED EE EE 00 E0 EE DE CE ED DD EE 00 AE EE EC BE EB EE 00 E0 BA ED EB BE DC 0E 00 E0 99 99 EE 
9E 96 99 0E EE E9 DD 0E E0 9D 6E EE E0 E2 E1 E2 00 E0 E2 E1 00 0E EE 0E 00 00 EE EE E0 BA CC EE EE AE CB EC E0 BA EC CC CC EC BA EC E0 31 E5 E5 EE E5 13 E3 EE 31 E5 E5 EE E5 13 E3 E0 13 11 E1 EE 11 11 E1 E0 3E 
11 E1 1E 11 11 E1 E0 EA BB 0E AE BE AE 0E E0 EA BB EE AE BE AE 0E CE ED CD EC EE CE DC ED 00 CE DC ED DE DD ED ED 00 EE EE 0E E0 EE EE 00 E0 EE EE 0E EE EE 0E 00 EE EE EE EE EE EE EE EE 00 EE EE 0E E0 EE EE 00 
00 0E EE 0E 00 00 EE EE 00 00 00 00 00 00 00 00 E0 EE EE EE 00 EE EE EE E0 EE EE EE EE EE EE EE E0 EE EE EE E0 EE EE EE EE EE EE EE E0 EE EE EE E0 EE EE 0E E0 EE EE EE E0 EE EE 0E E0 EE EE EE E0 EE EE 0E EE EE 
EE 0E E0 EE EE 0E EE EE EE 0E E0 EE EE 0E 00 E0 EE EE 00 EE EE EE E0 EE EE EE 00 00 E0 EE EE 0E 00 00 00 00 00 00 00 00 00 00 E0 00 EE EE EE 00 00 0E 00 00 00 00 00 00 00 00 00 00 00 00 00 00 EE 0E 00 00 00 00 
00 00 00 00 00 EE 0E 00 00 00 EE 0E 00 00 00 00 00 00 00 00 00 00 E0 EE EE 0E 0E 00 00 00 00 00 00 00 00 00 00 EE 0E 00 00 E0 EE 00 00 00 00 00 00 00 00 00 00 00 E0 EE EE 00 00 00 00 00 00 00 00 00 00 00 00 00 
00 EE EE 0E 00 00 00 00 00 EE 00 00 00 00 00 00 EE BA CE EE 00 00 00 00 00 00 00 00 00 00 E0 E0 36 6E 96 0E E0 0E 00 00 00 00 00 00 00 00 E0 EE EE 0E 00 EE AA EA 00 00 00 00 00 00 00 00 E0 AA EB 00 00 E0 AA EB 
00 00 00 00 00 00 00 00 00 00 AE BA 3E E5 E1 00 00 00 00 00 00 00 00 00 E0 37 EE EE EE EE 77 0E 00 E0 EE 00 00 00 EE 0E E0 EE AE AA BA 0E 00 00 00 00 00 00 00 00 00 00 00 E0 EE EE EE EB 00 00 00 00 00 AE EE EE 
00 00 00 E0 EE EE EE EE 0E 00 00 00 EE EE EE EE 00 00 E0 6E E6 66 6E E9 6E 0E 00 00 EE EE EE 00 00 00 AE 1E AE E4 E0 AA BB 0E 00 00 00 00 00 00 00 00 E0 BA EC EE 0E E0 BA EB 00 00 00 00 00 00 00 00 E0 EE BA BE 
EB 3E 0E 0E 00 00 00 00 00 00 00 00 E0 E7 16 11 11 16 3E 0E 00 EE E3 EE EE EE 7E EE AE AA AA EA AE EB 00 00 00 00 00 00 00 00 00 00 00 E0 CC CC DC BE 0E 00 00 00 E0 CE EE BB 0E 00 E0 EE EE BB CB ED EE 0E 00 E0 
AE EB CB EE 0E 00 E0 E9 66 E6 6E E9 6E 0E E0 E0 31 2E 23 0E 00 0E 4E 1E 4E E4 BE BB EE 00 00 00 00 00 00 00 00 00 E0 CA AE AA EA E0 BB EC 00 00 00 00 00 00 00 00 AE AA EB BE BB EE 00 EE 00 E0 00 00 00 0E EE 00 
E0 1E 16 33 13 16 3E 0E 00 7E 1E 11 11 11 E1 E3 E0 EE AA ED AD EB 00 00 00 00 E0 EE EE 00 00 00 E0 EE EE EE CE EE EE E0 00 E0 CE CE DC EE EE 00 AE EA AA EE AA EE AA EA E0 EE EE EE EE EE EE 0E E0 69 66 66 99 E9 
9E 0E E0 6E E6 66 39 E2 EE 0E E0 EA EA 2E E1 EE AA 0E 00 00 00 00 00 00 00 00 E0 EB BA BB CB EE BE EC 00 00 E0 EE 0E 00 00 00 BE BE BE BB EE 35 EE E5 00 3E 0E EE EE E1 31 0E 00 1E 66 11 61 16 E1 0E 00 EE 11 36 
33 16 E1 E3 00 00 AE EE AA BA 0E 00 00 00 AE AA BA 0E 00 00 E0 AE AE AE EE ED ED EE 00 E0 CE EC CE DD ED 00 AE EE EE EB EE EE BE EA AE EA BA BB CB ED AE EA E0 E9 EE EE EB EC 9E 0E E0 6E 66 66 96 E9 6E 0E 1E EE 
1E E1 E1 BB BB EA E0 EE EE 0E EE EE EE 0E 00 EE BA EE BB EC BA 0E 00 00 AE AA EE EE 0E 00 E0 E0 E9 EE 35 5E 51 0E 00 5E E1 AA BA 5E E5 00 00 1E 11 77 17 11 E1 00 00 E0 61 16 11 66 11 EE 00 00 AE AA AA BA 0E 00 
E0 EE AA AA AA EB 00 00 00 AE EE AE EE ED EE EA 00 00 EE CC EE EC BE 0E AE EB BA BE CB ED BD EB AE EE AE EE EA EE EE EA E0 A9 AA BA BE EC E9 00 E0 EE 66 E6 66 E9 6E 0E 1E 9E E9 E1 EE EE EE 0E 5E 1E 5E E5 BB AA 
AA EA E0 AA BB BE BB AB CB 0E E0 EE BA BB EB AA EE 00 00 E0 9E E9 53 3E 13 0E 00 E0 AE EB BB EE 0E 0E 00 1E 77 EE 7E 77 E1 00 00 E0 11 71 77 11 11 0E 00 EE AE AA AA BA 0E 00 AE AA AA BE AB BA 0E 00 0E EE 99 E9 
E9 ED CC EE 00 00 CE CC CC DC BE 0E AE EB EE EE EE ED BC EB AE EC AA EE AA EE DD EB 00 AE 9E B9 BE EC AE 0E E0 6E 66 66 EE E9 9E 0E 2E 6E E9 E2 E1 00 00 00 4E 1E 4E E4 BE EE EE 0E E0 BA BB BB EA BE EC 00 E0 EA 
BB CB CC BE EA 00 C1 C4 30 D3 AB A1 D6 D3 AE 8D C6 40 AE C1 5E 62 52 F2 82 57 A2 E3 A8 49 06 A9 7A 4B 7C 72 8C 51 4E 7E 31 8B B9 E8 4F 2B C9 CE 87 A7 C6 53 C8 34 93 4B C4 98 8A 3F 09 34 2F 64 85 83 C6 CB 6B A0 
A2 E2 0F 58 31 84 A3 3A 15 AB DB 67 CC A6 E9 78 CD C2 9C 11 36 54 D2 36 22 7C 9F 94 6E A6 41 BE 89 65 3F 9D 4B 5A 25 5D A0 D8 26 01 A2 46 DD 58 2A F0 96 B3 8E 21 B0 68 C2 CD E9 CF E0 14 45 D9 A9 1A 81 EA FD 12 
E0 14 82 3B E4 E6 F2 C2 F1 3B 5A 58 F2 63 BE 2D 8D FE C6 10 AB EE B9 D1 78 95 AA 48 AF 75 2A 3F 2E B7 1C 8E 44 78 FA 06 8F 81 B7 CF 4E 6E 3E 0F A1 50 D8 C9 90 63 00 3C B5 16 C2 D9 6E AA 08 C9 A9 C5 33 25 9C 5A 
7E BA 26 43 49 4F F8 EE 34 D2 4A EF 45 48 31 6E FA C6 AF A2 69 86 E6 DF E3 7F F9 79 43 A1 00 98 05 33 9A A8 44 B4 CC 39 55 0D C5 54 38 55 B2 5E 81 00 C2 AA 57 AE 79 3A 7D 38 3C 30 DD D6 75 4C 4B 00 D4 09 6D E3 
0F F2 C3 E3 EE 2C 00 FF FF FF FF FF FF FF FF FF FF 00 32 43 74 02 00 00 08 00 00 00 08 00 00 1E 9E E6 31 5E 31 E5 E0 00 EE BB BE BB EE E5 EE E0 77 E7 77 77 0E EE 00 E0 71 E7 EE 77 17 0E E0 AA AA AA AA BB 0E 00 
AE AA AA EA AE BA 0E 00 EE E0 69 66 E6 ED CD EC 00 EE EE EE EE DC EE 0E E0 EE DD DD ED ED EE 0E AE EB EE EB EE EE CD EB E0 E0 9E 99 BE 9E B5 0E E0 BE BB 66 96 E9 E9 00 E0 6E EE E2 12 0E 00 00 E0 EA EA 2E E1 BB 
AA 0E E0 EE EE EE AB BE EE 00 E0 BA EE EE EE BA EB 00 00 5E 6E 3E E5 15 EE E3 5E EE BA BB BB EE 15 0E 3E 1E 77 7E EE 77 E1 EA 00 00 7E 77 7E 77 E7 00 00 EE EE BE BA EB 00 00 E0 EE AE AA AA BA 0E 00 CE EA E6 E6 
E6 ED DD EC 00 AE AE AE AE DE AE 0E AE EB DE DD ED EE BC ED E0 EB BA BE CB ED BC 0E E0 E0 6E 66 BE 9E E9 0E 00 EE EE EE CE EE 0E 00 E0 EA EA 2E EE EE 00 00 1E 6E 1E E1 12 EE BE EA 00 EE EE EE AE BE EC 00 E0 CA 
EC AA AE BB EE 00 E0 E1 EE E5 5E E3 51 E1 5E AE BB BB EE E5 53 E1 1E 33 71 77 77 17 33 E1 00 E0 71 E7 E7 7E 17 0E 00 E0 BE AB EA EA 00 00 E0 AA AA AA AA EB 00 00 E0 AE AE AE EE ED DD EC 00 E0 AE AE AE DE EE 00 
AE EB EA EE DE EE BD ED 00 EE BA BE CB ED EE 0E E0 EE 6A A6 BE EE 9E 0E 00 9E 66 96 EE E9 00 00 2E EE EE EE E1 E1 00 00 1E EE 1E E2 12 0E E0 0E 00 E0 EE EE BE BE EC 00 E0 EB AE BB EB CB 0E 00 00 1E 31 5E 31 E5 
31 0E E0 BE BE EE 55 E3 E1 E5 E0 11 77 7E 7E 77 11 0E 00 3E 11 77 77 77 31 E1 00 AE AE AA AE BB 0E 00 00 EE EE BE AA EB 00 00 CE EE EE EE DE ED EE ED 00 CE EE EE EE DE DE 0E E0 EE AE BB EC AE DC ED 00 E0 AE BB 
DC EE EE EE E0 E6 BB BB CB 9E 66 0E 00 6E 96 EE 6E 96 0E 00 1E 0E 00 E0 E2 21 0E 00 E0 AE 2E 2E EE 0E 00 0E 00 AE EE EB BE CB EC 00 E0 AE BA CB EC EC 00 00 00 E0 EE 35 53 E1 EE 00 3E E1 E1 31 E3 3E 3E E1 00 1E 
77 E7 77 77 E1 00 00 3E 71 E7 E7 77 37 E1 00 EE AE BA EE BE 0E 00 00 E0 BE AB EA BA 0E 00 BE CE CC DC DD EE CC ED E0 EE CE CC DD ED ED EE 00 E0 ED EE DE ED EE 0E 00 EE EE EE EE EE EE EB E0 96 2E 55 E2 9E 69 0E 
00 6E 99 9E 96 99 0E 00 1E E2 00 00 EE 21 0E 0E E0 E1 EE 1E 2E E1 E0 E1 00 BE BB BB CB EC 0E 00 00 AE EB EE BE EE 0E 00 00 E0 55 EE 55 5E E3 00 5E E3 3E E3 3E 55 1E E5 00 E0 77 7E 7E 77 E1 00 00 1E 71 77 7E 77 
17 EA 00 00 EE BB BB AE EB 00 E0 EE EA AA AE EB EE 00 EE ED EE EE EE ED DC 0E E0 EC EC EE EE EE CE ED 00 AE DC ED CB ED 00 00 00 AE EE EE EE AE CE EE E0 E6 18 55 81 E9 69 0E E0 69 E9 69 99 E9 0E 00 1E EE 00 00 
E0 2E EE E1 00 1E 22 1E E2 1E EE 0E E0 EA CE CC EC AE EB 00 E0 EA AE BA EE AE EB 00 00 EE 51 E1 E3 35 E1 0E E0 EE E5 3E 5E 31 E1 0E 00 3E 71 77 77 37 13 0E 00 E0 13 E7 E7 77 13 0E 00 EE BA EE EE AA EB 00 E0 AA 
EE BA AE AE EB 00 CE DC DE BE DB ED EE EE E0 DC ED BB ED CD CE ED E0 BA CB 0E BE DC 0E 00 00 BE CE EE EC BC DE EE E0 E9 E9 00 DE DD 9E 0E E0 99 E9 66 96 99 E9 00 E0 E2 00 00 2E EE E2 0E 00 E0 E1 E2 E1 E2 E2 E1 
AE CB EC EE AE BA CC 0E AE CB AE CB EC BA CC 0E E0 31 E5 E5 EE E5 13 E3 E0 15 E3 E3 3E 1E 13 0E E0 13 11 E1 1E 11 11 E1 E0 3E 11 E1 1E 11 11 E1 E0 EA BB 0E AE BE AE 0E E0 BB EB BB EE BE EB 00 CE ED DC ED EE CE 
DC ED E0 DD ED DB DE CD DC ED E0 EE EE 00 EE EE EE 00 00 EE EE EE EE EE EE EE 00 EE EE 00 E0 EE EE 00 E0 EE EE EE EE EE EE 0E 00 0E 00 00 E0 E0 0E 00 00 00 EE 0E EE 0E EE EE EE EE EE 0E EE EE EE 0E EE EE EE EE 
EE EE EE 0E E0 EE EE EE E0 EE EE EE E0 EE EE 0E EE EE EE 0E E0 EE EE 0E E0 EE EE EE E0 EE EE 0E E0 EE EE EE E0 EE EE 0E EE EE EE 0E 00 EE EE EE EE EE EE 00 E0 EE EE EE 00 E0 EE EE E0 EE EE EE EE EE EE EE 00 00 
00 00 00 00 00 00 00 00 00 00 00 00 00 00 00 E0 EE 0E 00 EE 00 00 00 00 00 00 00 00 00 00 00 00 E0 EE EE 00 00 00 00 00 00 00 00 00 00 00 00 00 00 EE EE 00 00 00 00 00 00 00 00 00 00 00 00 00 00 00 0E 00 00 00 
00 00 00 00 0E 00 00 00 00 00 00 00 00 00 00 00 00 00 00 00 00 00 00 00 00 00 00 00 00 00 00 00 00 00 00 00 00 00 00 00 00 00 EE EE 00 00 00 00 00 00 00 00 00 00 00 00 00 00 00 00 00 00 00 00 00 00 00 00 00 00 
00 00 00 4E E4 00 EE 44 0E 00 00 E0 EE 0E 00 EE 00 00 EE 0E 2E EE E2 EE 00 00 00 00 E0 EE EE 00 00 00 E0 EE EE 44 44 0E 00 00 00 00 00 EE EE 00 00 00 00 00 00 E0 E1 00 00 00 00 00 EE E0 E1 E0 0E 00 00 00 00 00 
00 00 00 00 00 00 00 00 00 00 00 00 00 00 00 00 00 00 00 00 00 00 00 00 00 00 00 00 00 00 6E 66 EE 00 00 00 00 00 00 00 00 00 00 00 00 00 00 00 EE 0E 00 00 00 00 00 00 00 00 00 00 00 EE EE EE 44 EE EE 00 00 4E 
E4 00 EE 44 0E 00 BE EB EE BB 1E E1 00 00 EE 0E 2E EE E2 EE 00 00 AE AA BB 4E E4 E5 00 00 E0 EE EE 44 44 0E 00 00 0E 00 EE E0 E4 E0 0E E0 00 E0 41 EE E4 4E E1 00 00 00 EE 0E EE EE 00 00 00 00 00 00 00 00 00 00 
00 00 00 00 00 00 00 00 00 00 00 00 00 00 00 00 00 E0 44 44 64 0E 00 00 00 00 E0 EE EE 00 00 00 00 00 00 EE AA EB 00 00 00 00 00 00 00 00 00 00 00 4E 44 44 55 0E 00 00 00 EE EE EE 44 EE EE 00 E0 CC BB CC AA EE 
00 00 BE EB EE BB 1E E1 00 00 BE BB BC 4E 7E E5 00 00 AE AA BB 4E E4 E5 00 00 E0 E0 41 0E 0E 4E E1 E0 00 00 EE E4 EE E4 0E 00 00 E0 33 E2 33 22 0E 00 00 00 EE 0E EE EE 00 00 00 00 00 00 00 00 00 00 00 00 00 00 
00 00 00 00 00 4E 44 E4 44 E4 EE 00 00 00 E0 66 66 0E 00 00 00 00 E0 AA CB EE 00 00 00 00 00 00 EE EE 00 00 E0 44 44 44 EE E5 00 00 00 4E 44 44 55 0E 00 00 00 CE EC EE EC 0E 00 00 E0 CC BB CC AA 0E 00 00 E0 EE 
EE 45 54 E5 EE 00 BE BB BC 4E 7E E5 00 00 E0 00 EE E4 EE E4 0E 0E 00 00 00 4E 33 0E 00 00 00 3E 33 32 33 33 E2 00 00 E0 33 E2 33 22 0E 00 EE EE E0 EE EE 00 00 00 00 00 00 00 00 00 00 00 00 EE 44 EE 44 44 E5 00 
00 00 4E 44 44 E6 00 00 00 00 AE AA EB 0E 00 00 00 00 00 EE AA AA 0E 00 E0 EE EE E4 4E E5 00 00 E0 44 44 44 EE E5 00 00 E0 CB 6E CE 2C 0E 00 00 00 CE EC EE EC 0E 00 00 00 00 5E 55 EE EE 55 0E E0 EE EE 45 54 E5 
EE 00 00 0E 00 4E 33 0E 00 0E E0 00 6E 33 63 E3 00 00 00 3E 33 33 33 23 E2 00 00 3E 33 32 33 33 E2 00 8E 88 EE CC CC 0E 00 00 EE EE E0 EE EE 00 00 00 00 EE 44 4E E4 54 0E 00 00 E0 44 44 4E E4 EE 00 00 00 CE BA 
CC 0E 00 00 00 00 E0 AA CB BE EA 00 8E 88 88 4E 44 E5 00 00 E0 EE EE E4 4E E5 00 00 BE CC CC CC ED 0E 00 0E E0 CB 6E CE 2C 0E 00 0E 00 E0 E8 EE 98 9E EE 0E 00 00 5E 55 EE EE 55 0E 00 0E 60 33 63 E2 00 0E 0E E0 
EE 36 E6 23 0E 0E E0 33 33 33 33 33 23 0E E0 33 33 33 33 33 23 0E E0 8E 88 EE EE EC 00 00 8E 88 EE CC EC 0E 00 00 00 4E 44 E4 EE E5 00 00 00 E0 4E E4 4E 44 E5 00 00 E0 BA BA AA EC 00 00 00 00 AE BA BC EC EE 00 
8E 88 98 E9 44 E5 00 00 8E 88 88 4E 44 E5 00 00 CE AC AA DE ED 0E E0 E1 BE CC CC CC ED 0E E0 E1 EE EE E8 88 E9 E9 E5 00 00 E0 E8 EE 98 9E EE 0E C7 03 A8 04 BC 25 96 71 EA 26 0C 7B A4 94 6E F0 67 DE 29 68 49 84 
F4 0E FD FE CA D3 89 C7 57 CA B4 A8 D7 7C EE 23 E7 72 BC AD 2F F2 2F AF D7 0D FE DD 74 1B CD 95 DB 9E D0 9F E3 A7 2A F5 1A 32 05 0F A4 DE D6 59 E0 ED 25 F3 1E 03 E1 F0 5D EB AD 68 52 35 5E 9C 68 DB 7A 5A CA 9F 
FC 12 C3 F8 4D E9 27 9B A8 CE 08 E2 DD 97 D7 7C C8 BB BA F8 79 64 12 68 4B 8A 5A E1 A5 A6 6A 58 0C 12 73 D8 54 8B 92 B2 7E C3 82 9E A2 06 18 D9 C8 BC D5 3D 4B CC 80 E2 A2 6D E0 EC 9D 07 D1 5A 42 7C C7 8A AE 0A 
47 2F 38 44 A3 D1 E7 C8 35 1E 06 B1 1F F1 B1 B4 AC E2 1F 24 8F 2E D4 75 FF D7 3C 2F F1 2C B9 01 4A 60 A1 E5 4E E0 56 2E 13 BF 03 C7 50 3A 50 74 7D 3C 13 8D 34 3B 6F 24 F2 7D 82 0D 52 BB 93 48 B5 AC 9C 3D 08 15 
62 5E 08 43 B5 D3 C3 56 FF 2B 31 8D 89 75 5C D8 CE 77 88 F4 65 37 7D 81 1A 8C 96 5D 8A 11 E0 4E 13 2D 7B BA AB 80 63 BB E2 90 68 90 BB 0D BA A1 00 FF FF FF FF FF FF FF FF FF FF 00 32 44 00 02 00 00 08 00 00 00 
08 00 E0 00 E0 36 E6 E2 00 E0 0E 3E 33 33 33 2E 0E E0 E0 33 3E 33 3E 33 3E 0E E0 33 33 33 33 33 22 0E 00 EE EE 73 33 CE 0E 00 E0 8E 88 EE EE EC 00 00 00 E0 EE AE EE E5 EE 0E E0 EE 4E E4 44 5E 0E 00 00 EE AE AA 
EE CB 0E 00 00 E0 AB AB AA EC 00 00 8E 88 E9 EE 54 E5 E0 00 8E 88 98 E9 44 E5 00 00 E0 EE EE BC BA EC EE E1 CE AC AA DE BA EC EE E1 4E 4E 9E EE 9E BE 5C 0E EE EE E8 88 E9 E9 E5 00 E0 00 3E 33 33 22 0E E0 E0 E0 
33 33 E3 2E 0E E0 E0 E3 3E 33 EE 23 3E E2 3E 33 3E 33 3E 33 33 E2 E0 AA AA 7A 7E E3 0E 00 00 EE EE 73 37 CE 0E 00 00 EE EE EE EE E5 45 E5 4E E4 44 44 44 5E 0E 00 00 AE E6 EA B6 AC 0E 00 00 EE AA AA EE CB 0E 00 
E0 98 9E E9 55 0E 8E 0E 8E 88 E9 EE 54 E5 E0 0E 00 00 BE 6A 6A BA 1C E2 E0 EE EE AC 6A BA 1C E2 5E EE 44 54 55 EE EE 0E 4E 4E 9E EE 9E BE 5C 0E 00 EE 33 33 3E 22 EE 0E E0 00 EE EE 6E 2E E9 0E E0 3E 33 3E 33 E3 
EE E2 3E E3 3E 33 EE 33 33 E2 E0 7A AA 7A 37 CE EC 00 E0 AA AA 7A 7E C3 0E 00 E0 AE AE AE EE E5 45 E4 4E EE EE EE EE 54 EE 00 E0 AC AA AA AA BA EC 00 E0 6A AE EA B6 AC 0E 00 00 EE EE EE EE 0E 9E 0E E0 98 9E E9 
55 EE E0 E8 00 00 CE EC 6A 6A BA 0E 00 E0 EE EE 6A 6A BA 0E EE E0 EE EE EE EE E2 0E 5E EE EE EE EE EE EE 0E 00 3E EE EE 33 23 E9 00 0E 00 E0 66 66 2E E9 0E 7E E7 E3 E3 3E 7E 77 E3 3E 32 33 3E 33 33 E2 EA E0 E7 
77 AA 37 33 EE 00 E0 7A AA AA 37 CE EC 00 4E EE EE EE 4E E5 EE E4 4E E4 44 44 44 E5 45 0E E0 EA AA AE EA CB EE 00 E0 AA AA AA AA BA EC 00 E0 98 1E 9E 89 EE 9E 0E 00 EE EE EE EE 4E EE E9 00 00 E0 EE B6 CC 6A EC 
00 E0 C6 EC BC CC 6A EC 00 4E 4E E4 54 E5 CE EC E0 4E 4E E4 54 E5 CE EC 00 E0 33 33 33 23 E9 00 0E 00 6E 66 E6 23 E9 E0 7E E3 33 33 23 7E 37 E3 7E 3E E3 E3 3E 23 7E E7 00 7E EE 77 77 33 E3 0E E0 E7 A7 7A 37 33 
EE 00 4E 4E 44 44 54 EE 44 E5 4E 55 EE EE EE 5E 45 0E AE AE EE EA AE EE CA 0E EE EA AA AE EA BB BE 0E E0 EE 11 E1 EE 4E E4 00 E0 98 2E 9E 89 5E 44 EE 00 00 E0 EC CA EE AC EC 00 E0 CA EE CA EE AC EC E0 EE EE EE 
EE CE CE ED E0 EE EE EE EE CE CE ED 00 E0 93 93 92 22 E9 00 E0 E0 EE EE 3E 22 E9 E0 3E E2 3E 23 23 3E 23 0E 3E E2 33 33 33 23 3E E2 E0 AE 37 EE 3A 3E E3 0E E0 7E 7E E7 7A E3 E3 0E EE E4 EE EE EE ED 54 0E E0 EE 
DB 44 4E E4 54 0E AE EA AA AE EA AA CB 0E AE AE EE EA AE EE CB 0E 00 1E EE 2E E2 55 E5 00 E0 EE 1E E2 EE EE 55 E4 00 00 E0 EA C6 EE EE EC 00 E0 BB EE 16 EE EE E1 CE AE AE AE CE CC DE EE CE AE AE AE CE CC DE EE 
00 E0 22 29 29 99 E9 00 00 EE 23 23 23 92 E9 0E E0 EE E2 E3 E2 E2 EE 0E E0 EE 3E 32 32 E2 EE 0E AE E3 EE AA 73 E3 3E E7 AE AE E3 AE 37 33 3E E7 4E 55 5E BE DB ED EE EE 00 E0 EE 5E 4E E4 54 EE E0 AA AA BA CB CC 
EC 00 AE EA AA BE EB CB CC 0E 00 2E 11 21 22 2E 0E 00 00 E0 E1 1E 21 22 2E 0E 00 00 BE BE BB 0E BE EB 00 E0 EE BE BB 0E BE EB DE BE BB BB DE DD EE 00 DE BE BB BB DE DD EE 00 00 00 9E 92 99 99 0E 00 00 00 9E 92 
92 99 0E 00 7E 77 23 0E EE 77 37 E2 7E 37 2E 2E 2E 7E 77 E2 8E 3E E3 38 E8 E8 38 E3 8E EE 3E 8E 8E 8E 8E E3 4E E5 44 E5 EE 4E 54 E5 00 4E 54 E5 5E 45 E5 E4 00 EE EE EE EE EE 0E 00 E0 EE EE EE EE EE EE 00 00 E0 
EE EE EE EE 00 00 00 00 EE EE EE EE EE 00 00 00 EE EE EE 0E EE EE 00 00 00 EE EE 0E EE EE E0 EE EE EE EE EE 00 00 E0 EE EE EE EE EE 00 00 00 00 E0 EE EE EE 00 00 00 00 E0 EE EE EE 00 00 EE EE EE 0E E0 EE EE EE 
EE EE EE E0 E0 EE EE EE EE EE EE EE EE EE EE EE EE EE EE EE EE EE EE EE E0 EE EE 0E 00 E0 EE EE 00 EE EE EE E0 EE EE EE 00 00 00 00 EE EE 00 00 00 00 00 00 00 00 00 00 00 00 EE EE EE E0 EE EE 00 00 00 00 00 00 
00 00 EE 0E E0 EE EE 00 00 00 00 00 00 00 00 00 00 00 00 00 00 EE EE 00 00 00 00 00 00 00 00 00 00 00 00 00 00 00 0E 00 00 00 00 00 00 00 0E 00 00 00 00 E0 EE E0 EE 0E 00 00 00 00 00 00 00 00 00 00 EE 0E 00 00 
00 00 00 00 00 00 00 00 00 00 00 00 00 00 00 00 00 00 00 00 00 00 00 00 00 00 00 00 00 00 00 EE AA EA 00 00 00 00 00 00 00 00 00 00 00 E0 44 44 44 4E 44 0E 00 00 00 00 00 00 00 00 BE EB EE E2 2E 0E 00 00 00 00 
00 00 00 00 00 00 E0 EE EE 44 44 0E 00 00 00 00 00 EE EE 00 00 00 00 00 EE E0 E1 E0 0E 00 00 00 00 E0 E1 00 00 00 00 3E 33 3E 33 E2 00 00 00 00 00 00 00 00 00 00 8E E8 EE EE 0E 00 00 00 00 00 00 00 00 00 00 00 
00 E0 EE EE EE 0E 00 00 00 00 00 EE EE 00 00 00 00 00 E0 AA CB 0E 00 00 00 00 00 00 E0 EE 0E 00 00 EE EE 4E E4 55 EE 00 EE EE 00 00 00 00 00 00 E0 EC BE 5B EC EE 0E 00 00 00 00 00 00 00 00 00 AE AA BB 4E E4 E5 
00 00 00 E0 EE 44 44 0E 00 00 00 E0 41 EE E4 4E E1 00 00 00 00 E0 E4 00 00 00 E0 E3 33 33 E3 2E 0E 00 00 00 00 00 00 00 00 00 E0 88 E8 CC EC 0E 00 00 00 00 00 00 00 00 00 00 00 E0 44 44 44 EE 00 00 00 00 00 6E 
66 EE 00 00 00 00 AE BA EC 0E 00 00 00 00 00 E0 AE AA 0E 00 E0 88 88 E8 EE E5 00 00 E0 44 0E 00 EE EE 00 00 E0 BE CB EE AC 11 0E 00 EE 0E E0 EE EE 00 00 00 BE BB BC 4E 7E E5 00 00 E0 AE BB 4E 4E E5 00 00 00 00 
EE E4 EE E4 0E 00 00 00 00 EE EE 0E 00 00 E0 23 3E 33 2E 23 0E 00 00 00 EE 0E EE EE 00 00 00 EE EE 73 E7 EC 00 00 00 00 00 00 00 00 00 00 00 E0 EE EE 4E EE 00 00 00 00 E0 44 44 66 0E 00 E0 0E AE AB CE 0E E0 0E 
00 00 00 AE BA EC 00 00 8E 88 98 99 4E 54 0E 00 00 EE EE EE 44 E4 0E 00 BE BB 6C C6 AC EE 00 00 BE EB 2E EE E2 EE 00 00 E0 EE EE 45 54 E5 00 00 AE BA BC 4E E4 E5 00 00 00 00 00 4E 33 0E 00 00 00 00 EE E4 E3 E4 
0E 00 3E 33 33 33 33 33 E2 00 00 E0 33 E3 33 22 EE 0E E0 AA AA B7 3E CE 0E 00 00 00 00 00 00 00 00 00 00 AE AE AE EE E4 00 00 00 00 4E 44 44 44 0E 00 AE EB BE EA B6 EC AE EA 00 00 E0 AA CB EE 00 00 E0 88 E9 EE 
4E 54 0E 00 00 4E 44 44 54 0E 00 00 EE EE CE CC EC 0E 00 00 E0 EC EE BB 1E E1 00 00 00 00 5E 55 EE EE EE 00 BE EB EE 45 54 E5 EE 00 E0 00 6E 33 63 EE 00 00 00 E0 41 3E 33 4E E1 00 3E E3 EE EE 33 23 E2 00 EE 3E 
33 33 33 23 7E E3 E0 E7 77 E7 7E C3 0E 00 00 00 00 00 00 00 00 00 00 AE EE AE EE E4 EE 00 00 00 4E E4 44 44 EE 0E CE EB AA AA AA EC BA EC 00 EE E0 BA AE EC E0 0E E0 EE EE EE E9 54 0E 00 E0 44 44 E4 4E E5 00 00 
00 9E E9 CC 2D 0E 00 0E E0 BE BB CC AA EE 00 00 EE EE EE EE E6 E9 55 0E EE 0E 5E 55 EE EE 55 0E 0E E0 EE 36 E6 22 0E 0E 00 00 EE 66 63 E3 0E 00 3E AE AE AE 3E 33 E2 0E 7E 3E 33 33 33 23 7E E2 E0 EE EE 7E 77 E3 
EC 00 00 00 EE EE 0E 00 00 00 00 EE EE EE EE E4 44 0E 00 00 EE 44 EE 44 54 0E E0 EC EA EA AE AB EC 0E E0 BA EE AA E6 CB AE 0B 00 EE EE EE E9 54 0E 0E E0 EE EE 44 EE E5 00 00 00 E0 69 DE EA 0E E0 E1 BE BB EC CC 
EC 0E 00 00 4E 4E E8 6E E6 E9 EE 0E 00 E0 E9 EE 98 9E EE 0E EA AA EC F8 71 BE 95 92 79 01 2C 6F D6 20 E5 0E 38 74 59 5E 5F 76 14 B2 4B 03 36 09 DE 8B 53 B3 02 81 99 A5 64 A3 78 DC F8 2A F2 8A E5 FD EC 51 2E BA 
E9 A9 55 BA E8 E2 1F 04 8C DF 6F BB 0C AB AB 61 1B 9E 89 BA 35 0B 14 DF C2 E8 6E BD 14 5A 9C EE 6D 89 6E 78 28 BE AB 10 83 88 37 70 5E 99 E1 46 54 43 68 48 0F 01 FA 63 BB E1 37 55 9A E4 79 60 D8 BA 49 32 5E EC 
0F 56 F0 D5 95 5B 65 13 EE 3D ED 53 1B 3D B1 34 0F 67 E3 05 FC FF D2 C9 1F FF F8 7F AD 83 FC FF 4F CE 4D 61 5D 5D 7C 82 F9 EB 1F 75 D4 64 3D FA 5A 24 C6 30 A3 23 D6 0C FA DB A2 4C 1B A5 D3 26 CF BC A4 93 0F F3 
82 4A CE 50 CB 2D 58 53 92 97 A0 99 8E 8D FD C9 3A 54 D3 A9 A6 25 83 AE D8 D3 4B 78 76 6F 85 2F 2F 43 CC 4D 25 75 97 1B 0B A3 F2 2B 1F 8D F1 5B 60 E3 C4 93 1A 7E 54 B7 09 7C D4 31 53 6D E0 60 33 B7 68 A7 EF 01 
2F 2C 95 AE 11 6C 2A 45 27 81 E1 CD 48 EE 1B 87 AD 18 09 3B 00 FF FF FF FF FF FF FF FF FF FF 00 32 44 01 02 00 00 08 00 00 00 08 00 0E 3E 33 33 33 2E 0E E0 00 00 E0 3E E3 26 0E 00 3E AE EE AE EE 33 33 E2 2E 33 
3E E3 33 E3 33 E2 E0 EA EA EA 7E 37 EE 00 E0 EE EE CC EC 0E 00 00 00 E0 EE EE EE E5 45 E4 00 00 4E 44 44 54 E5 00 00 EE EE EA EE BA 0E 00 E0 BC AE AA AA BA BE 0C E0 EE EE 9E E9 55 EE E8 8E 88 88 4E 44 E5 00 00 
00 E0 66 AE CB EC EE E1 EE EE CE EE 2C 0E 00 00 5E EE 8E 6E 8E 4E 9E 0E 00 E0 E8 88 E9 E9 E9 00 E0 E0 EE EE EE 9E 0E E0 00 E0 3E 33 33 23 0E EE 3E E3 99 E9 E9 33 E2 E2 E0 E3 33 33 EE E3 33 0E 00 EE EE EE EE 37 
E3 00 8E 88 88 EE EE EC 00 00 00 EE EE EE EE E5 55 E4 00 00 E0 EE EE 54 0E 00 00 EE EE EE EE EA EA 00 00 CE AE AE EE CA CB 0E EE E8 EE 9E E9 EE E0 E9 8E 88 98 E9 44 E5 00 00 E0 EE EE BA AB CC 1C E2 00 E0 E9 CC 
EA 0E E0 0E EE 00 5E EE E8 4B 9E 0E E0 4E 5E EE 5E 5E 8E 0E E0 00 EE EE EE 9E E9 0E E0 3E EE 3E 33 23 E2 0E E0 33 9E 66 E6 33 EE E2 E0 33 E3 33 33 33 23 EE 00 EE 9E E9 EE 77 E3 0E EE EE 3E AA 37 CE EE 00 E0 AE 
AE AE EE E5 55 E4 00 E0 AE AE AE 5E EE 00 E0 EE 6E 66 AE EE EA 00 00 E0 EE AE EE CE EC 00 EE 89 98 99 8E E8 EE E9 8E 88 E9 EE 54 E5 00 00 E0 AA AA EE AE AC CC 0E E0 EE EE AA CD EC EE E1 00 E0 EE 89 EE EE EE 0E 
4E EE EE EE EE EE EE 0E E0 00 EE EE EE EE E9 0E 0E E0 33 E3 3E 23 E9 E0 7E 3E 6E 66 E6 E3 77 E3 E0 33 3E 3E 33 32 23 E2 E0 EE E9 99 E9 EE 33 0E E0 AE EA 77 77 E3 EC 00 4E EE EE EE 4E E5 EE E4 00 4E EE EE EE 5E 
4E 0E E0 EA 66 66 AE EE EA 00 00 AE E6 E6 AE EE AE 0E 8E EE EE EE 99 E8 44 0E E0 98 9E E9 55 EE 0E 00 00 EE EE CE CA CC CA EC E0 AA AA EC CD BA CC 0E 00 4E 4E EE 54 E5 CE EC EE 4E 4E E4 54 E5 CE EC 0E 00 EE 66 
66 E6 E9 E0 0E E0 29 33 E3 2E E9 E0 7E 3E EE EE 3E E3 77 E3 00 EE 33 33 23 EE 3E E2 AE 6E 6E 99 AE 3A 3E 0E E0 7A E7 7E 37 CE CC 0E 4E 4E 44 44 54 EE 44 E5 E0 EE 4E 44 44 E5 E5 EE EE EA E6 66 AE EE CB 0E E0 AA 
AE EE AA EE BA 0E E0 E9 11 E2 99 4E 54 0E 00 EE EE EE EE 4E E4 00 00 00 E0 AE EC EE AC EC 00 EE EE CE CA CA CA EB E0 EE EE EE EE CE CE ED E0 EE EE EE EE CE CE ED 0E E0 6E 66 66 E6 E9 E0 0E E0 29 29 29 92 E9 E0 
3E 3E 33 33 33 E2 37 E2 EE 37 3E 33 E3 77 EE E2 7E 6E 6E E9 7A 77 E3 0E E0 E7 77 77 7E E3 E3 0E EE E4 EE EE EE ED 54 0E E0 E4 E4 EE EE EE 4E E4 AE AA AE EE AA EE CB 0E E0 AA AA AA AA AA CB 0E 00 EE EE EE EE E2 
E5 00 00 9E 1E E2 E9 5E 45 0E 00 00 E0 CE B1 EE EE E1 E0 CA AE EC BE CB AE EA CE AE AE AE CE CC DE EE CE AE AE AE CE CC DE EE 0E E0 E3 EE EE 9E E9 E0 E0 E0 92 92 22 99 E9 E0 E0 EE 3E E2 23 EE EE 0E 7E 37 3E 23 
E3 37 33 E2 3E 6E 6E E9 E3 E3 E3 E3 7E 3E EE EE 37 37 EE E3 4E 55 5E BE DB ED EE EE E0 44 E5 BB ED 45 4E E4 E0 AA BA BB BB CB EC 00 00 AE BA BB BB CC EC 00 00 00 1E 11 22 E2 E2 00 00 8E EE E1 E8 E2 E2 E8 00 00 
BE EE EE 00 BE EB E0 BA AE BA CE EC BB E1 DE BE BB BB DE DD EE 00 DE BE BB BB DE DD EE 00 E0 0E 3E 23 92 99 0E 0E E0 00 2E 99 99 99 0E 0E 7E 37 E2 0E EE 77 37 E2 7E 23 EE E2 E2 23 22 0E 8E 6E 96 EE E8 E8 E8 E8 
8E E3 37 8E 8E 8E 8E E7 4E E5 44 E5 EE 4E 54 E5 E0 55 E5 DB 5E 55 55 E5 00 EE EE EE EE EE 0E 00 00 E0 EE EE EE EE 0E 00 00 00 E0 EE EE EE 0E 00 00 E0 EE EE EE EE EE EE 00 00 EE EE 0E 00 EE EE 00 EE EE EE EE EE 
EE EE E0 EE EE EE EE EE 00 00 E0 EE EE EE EE EE 00 00 00 00 E0 EE EE EE 00 00 00 00 E0 EE EE EE 00 00 EE EE EE 00 E0 EE EE EE E0 EE EE EE EE EE EE 00 E0 E0 EE 0E 0E 0E EE EE EE EE EE EE EE EE EE EE E0 EE EE EE 
00 E0 EE EE E0 EE EE EE EE EE EE EE 00 00 00 EE EE EE 00 00 00 00 00 00 00 00 00 00 E0 0E 00 00 00 00 00 00 00 00 00 00 00 00 00 00 00 00 00 00 00 00 00 00 00 00 00 00 00 00 00 00 00 00 00 00 00 00 00 00 00 00 
00 00 00 00 00 00 00 E0 EE EE 0E E0 0E 00 00 00 00 00 E0 EE 00 00 00 00 E0 EE 0E 00 00 00 00 00 00 00 00 00 00 00 00 00 00 00 00 00 00 00 00 00 00 00 00 00 00 00 00 EE 00 00 E0 EE 00 00 00 00 00 00 00 00 00 00 
00 00 E0 33 33 23 0E 00 00 00 00 EE EE EE 00 00 E0 E7 E0 EE EE 00 00 00 E0 0E 00 00 00 00 00 00 00 00 00 00 00 00 00 00 00 00 00 00 00 00 00 00 00 00 00 E0 0E EE 00 00 00 00 00 00 00 00 00 00 00 AE AA AA E9 00 
EE 00 00 EE EE EE 00 AE 0E 00 00 EE EE BB EB EE 0E 00 00 00 E0 EE 0E 00 00 00 00 00 00 00 00 00 00 00 00 00 00 00 00 00 00 00 E0 E3 00 00 E0 E9 0E 00 00 EE 00 00 E0 EE 00 00 00 00 3E 33 33 33 E2 00 00 00 E0 33 
33 23 0E 00 00 7E DE CC CD EE 00 00 E0 E7 E0 EE EE 00 00 00 00 00 00 00 00 00 00 00 00 00 00 00 00 00 00 00 00 00 00 EE EE EE 0E 00 00 00 00 E0 0E EE 00 00 E0 AA 88 88 99 0E AE 0E E0 AA AA 9A 0E AE EA 00 E0 BB 
EC CC CE BB EB 00 00 EE EE BB EB EE 0E 00 E0 E0 E0 00 0E 0E 0E 00 00 00 00 00 00 00 00 00 E0 E3 00 00 9E EE E2 00 E0 E3 00 00 E0 E9 0E 00 00 00 3E 33 33 33 E2 00 00 00 3E 33 33 33 E2 00 00 2E CC EE EC CC EE 00 
00 7E DE CC CD EE 00 00 00 00 00 00 00 00 00 00 00 00 00 00 00 00 00 00 00 E0 0E 6E 66 66 0E 00 00 00 00 EE EE EE 0E 00 E0 8A 88 99 E9 EE AA 0E AE 8A 88 98 E9 7A EA 00 00 EE CC DD CC EE 0E 00 E0 BB EC CC CE BB 
EB 00 E0 EE EE 00 EE EE 0E 00 0E 0E 0E 00 E0 E0 E0 00 E0 96 0E EE 99 9E EE 0E E0 E3 00 00 9E EE E2 00 00 E0 E3 33 33 3E E2 00 00 00 3E 33 33 33 E2 00 E0 CC 3C CE DC EE CC 0E 00 2E CC EE EC CC EE 00 00 E0 EE EE 
00 00 00 00 00 00 00 00 00 00 00 00 00 EE EE 6E EE 66 0E 00 00 E0 0E 6E 66 66 0E 00 E0 EA EE 9E 1E AE 7A EA AE 88 98 99 EE EA A7 0E E0 BB EC CC CE BB EB 00 00 EE CC DD CC EE 0E 00 E0 6A EA 00 AE A6 0E 00 EE EE 
0E 00 E0 EE EE 00 00 9E E9 99 9E E9 99 0E E0 96 0E EE 99 9E EE 0E 00 E0 33 E3 33 33 E2 00 00 E0 EE 33 33 EE E2 00 E0 DC 3C E3 CC ED EE 0E E0 CC 3C CE DC EE CC 0E 00 E0 66 66 EE 00 00 00 00 E0 EE EE 00 00 00 00 
00 1E 11 11 EE 11 0E 00 00 EE EE 6E EE 66 0E 00 E0 98 99 99 1E AE E7 EA AE EE EE E9 E1 7A 7E 0E E0 BB EE BB EE BB EB 00 E0 BB EC CC CE BB EB 00 E0 EE EE 00 EE EE 0E 00 AE A6 0E 00 E0 6A EA 00 E0 33 99 1E E2 99 
EE 0E 00 9E E9 99 9E E9 99 0E 00 E0 33 33 33 23 E2 00 00 E0 33 E3 33 33 E2 00 E0 EE CE CD CD EC 00 00 E0 DC 3C E3 CC ED EE 0E 00 00 6E 96 99 0E 00 00 00 E0 66 66 EE 00 00 00 00 1E 11 11 11 11 0E 00 00 1E 11 11 
EE 11 0E 00 E0 99 99 E9 17 AE E7 E7 8E 99 99 E9 E1 E7 E0 0E 00 EE 44 EE 55 EE 0E 00 E0 BB EE BB EE BB EB 00 00 E0 00 00 00 0E 00 00 EE EE 0E 00 E0 EE EE 00 3E 99 E9 22 EE E9 29 0E E0 33 99 1E E2 99 EE 0E 00 00 
3E 33 33 22 0E 00 00 E0 33 33 33 33 E2 00 00 7E 77 D8 DD EE 00 00 E0 EE CE CD CD EC 00 00 00 00 9E EE EE E9 00 00 00 00 6E 96 99 0E 00 00 00 EE EE EE EE EE 0E 00 00 1E 11 11 11 11 0E 00 2E EE AE F5 33 EE 2A 55 
4E D9 4D 48 49 25 B9 31 67 37 0C E1 FB 93 D7 BF 83 28 DA 29 2F DB F7 70 D2 F2 68 65 62 2F D6 B0 48 84 A3 D3 F6 58 D8 A8 89 DC 18 65 18 32 CF B7 8D E3 B6 53 A3 38 24 04 AC 2B E7 98 FD D4 FE D6 32 3A 87 20 BC 37 
F1 6D CB 1C 63 FA A0 48 2E 96 29 9D 14 AD E2 51 5E 1F 2A C5 7D 4C 0A 35 B3 7C 1B AD A8 A9 96 99 75 8A FC B4 5E 19 D1 C9 54 D0 6E 21 66 2F E7 8D D4 6E 77 C1 1A 10 ED C0 29 84 99 48 B5 27 CE B7 A2 41 B7 F7 EF 23 
2A B1 7C 3F 0E FA 7D B4 E1 1C 77 70 6D C6 BA AC D6 AB 15 04 D7 EE DE 25 F5 6C 7E C8 B2 F2 78 DC 49 4B 08 11 EE 68 E6 64 A8 20 D1 D4 99 41 B5 14 E1 8F AD 52 FD 2F 90 99 12 39 91 70 23 95 06 F7 74 FB 2F 02 5A EF 
D1 6C 49 AE CA 70 D9 9E DB A3 2D 5E FF 59 2B 97 81 88 61 46 2C 77 07 CB DE 79 00 8C F9 E3 21 8B E0 A2 23 78 3F 85 DD A8 0A EA 17 FC 7F 46 CC 1B F9 C1 1A DA FC E9 78 47 77 B6 30 7C 9B BC 00 FF FF FF FF FF FF FF 
FF FF FF 00 32 44 02 02 00 00 08 00 00 00 08 00 00 EE EE AE 77 7E 0E EE 9E 99 99 2E E1 0E 00 0E 00 E0 E4 44 E4 55 0E 00 00 EE 44 EE 55 EE 0E 00 00 00 0E 00 E0 00 00 00 00 E0 00 00 00 0E 00 00 9E 99 99 EE 9E 99 
E9 0E 3E 99 99 22 EE E9 29 0E 00 E0 E2 33 E2 EE E2 00 00 E0 33 33 33 23 E2 00 00 E0 EE 87 CC 0E 00 00 00 7E 77 D8 DD EE 00 00 00 E0 E4 44 44 ED 0E 00 00 00 9E EE EE E9 00 00 00 4E 44 44 44 66 0E 00 00 EE EE EE 
EE EE 0E 00 00 AE AA 7A EE EE 00 E0 E0 EE EE 7A E2 0E 00 00 00 E0 E4 44 E4 55 0E 00 00 E0 E4 44 E4 55 0E 00 00 00 E0 EE EE 00 00 00 00 00 EE EE EE 00 00 00 EE EE EE E9 9E EE EE 0E 9E 99 99 EE 9E 99 E9 0E 00 3E 
33 33 33 33 22 0E 00 2E 3E 33 33 22 2E 0E 00 00 CE 8C DD ED 00 00 00 E0 EE 87 EC EC 00 00 00 4E 44 44 D4 5D E5 EE 00 E0 E4 44 44 ED 0E 00 00 4E 44 44 44 66 0E 00 00 4E 44 44 44 66 0E 00 E0 EA EE EE 7A E8 00 00 
E0 AA AA E7 8E EE 00 00 00 E0 44 44 44 55 0E 00 EE E0 E4 44 E4 55 0E EE 00 00 4E 88 54 0E 00 00 00 00 4E 88 54 0E 00 00 E0 33 63 EE EE EE EE 00 EE EE EE E9 9E EE EE 0E 00 3E 33 33 33 33 23 0E E0 33 33 33 33 33 
23 E2 00 EE 14 84 CE ED 00 00 E0 CE CE 8C E8 CE 0E 00 E0 64 44 46 4D 44 ED E5 00 4E 44 44 D4 4D E5 EE 00 EE EE EE EE EE 0E 00 00 4E 44 44 44 EE 0E 00 7E 1A 7A A1 E7 87 0E 00 AE EE EE 9E A8 E7 00 00 00 4E 4E 44 
55 E5 E5 00 8E EE 44 44 44 55 EE E8 00 00 4E 44 44 E5 00 00 00 00 4E 44 44 E5 00 00 00 EE 33 33 66 66 E6 EE E0 33 63 EE EE EE EE E3 00 3E 33 33 33 33 23 0E E0 33 33 33 33 33 33 E2 E0 ED 41 EB EE DC 0E 00 DE EC 
14 41 DE DC 0E 00 E0 E4 44 4E 44 D4 54 EE E0 64 44 46 4D 44 EE E5 00 E0 EA DD DD 1E E1 00 00 EE EE EE EE 1E E1 00 1E 7E 77 77 E8 9E 0E 00 AE AE AE E7 AE E7 00 00 00 4E E5 EE EE 5E E4 00 5E 54 4E 44 55 E5 44 E5 
00 00 4E 44 44 55 EE 00 00 00 4E 44 44 55 EE 00 00 00 3E 33 33 33 E6 E3 00 EE 33 33 66 66 E6 E6 00 3E 33 33 33 33 23 0E E0 33 33 33 33 33 33 E2 E0 EC 11 E1 CD ED 0E 00 CE ED 41 14 CE ED 0E 00 E0 45 44 54 44 55 
45 0E E0 E4 44 4E 44 E4 54 EE 00 00 EE EE EE AA E1 00 00 E0 EA DD ED AA E1 00 7E EE EE EE EE 87 0E 00 7E 71 7E 79 79 0E 00 00 00 8E 4E 44 55 E5 E8 00 E0 5E EE EE EE 5E E5 0E 00 E0 44 EE 4E 54 55 0E 00 E0 44 EE 
4E 55 55 0E 00 00 9E 9E 63 63 E3 E6 00 00 6E 3E 33 33 63 0E 00 3E 33 33 33 33 22 0E E0 33 33 33 33 33 23 E2 00 EE 1E E7 DC EE 0E 00 E0 EE 1E 71 E2 EE 0E 00 E0 BB B5 EB 54 BE 4E E5 E0 45 44 54 54 55 45 0E E0 EE 
EE 4E 44 EE EE 0E E0 EE EE EE EE EE EE 0E E0 E1 98 7E 18 EE 0E 00 E0 EE E9 EE EE E1 00 00 00 E0 4E 54 55 EE 0E 00 00 E0 4E 44 55 EE 0E 00 00 4E 44 44 44 55 55 E5 00 4E 44 44 44 54 55 E5 00 00 3E 9E E6 E6 33 0E 
00 EE EE 39 E6 E6 39 E6 00 E0 33 33 33 22 E2 00 00 3E 33 33 33 23 22 0E E0 E4 E4 EE EE E4 E4 00 E0 E4 E4 27 EE E4 E4 00 AE EE EE AE E5 EE 55 EA EE BB B5 AE 5B EE B5 EA E0 66 66 EE EE 4E 44 0E E0 66 66 4E E4 4E 
44 0E 8E EA 98 AE 8A A8 0E 00 8E EA 98 AE 8A A2 0E 00 00 2E E5 EE EE 54 E2 00 00 2E E5 54 E5 44 E2 00 00 E0 44 44 55 55 EE 0E 00 E0 44 54 55 55 EE 0E 00 E0 E6 39 E6 9E 93 E6 E0 E6 39 66 EE 9E 63 E6 00 00 EE EE 
EE EE 0E 00 00 E0 EE EE EE EE EE 00 E0 EE EE 00 EE EE EE 00 E0 EE EE EE EE EE EE 00 EE EE 00 EE EE E0 EE 0E EE EE EE EE EE EE EE EE E0 EE EE EE 0E EE EE 0E E0 EE EE EE EE EE EE 0E EE EE EE E0 EE EE 0E 00 EE EE 
EE E0 EE EE 0E 00 00 EE EE 0E E0 EE EE 00 00 EE EE EE EE EE EE 00 00 00 EE EE EE EE 00 00 00 00 EE EE EE EE 00 00 00 E0 EE EE EE EE EE EE E0 EE EE EE E0 EE EE EE 00 00 00 EE EE 0E 00 00 00 00 00 00 00 00 00 00 
EE 00 00 00 00 EE EE 00 00 00 00 00 00 00 00 00 00 00 00 00 00 00 00 00 00 00 00 00 00 00 00 00 00 00 00 EE E0 0E 00 00 00 00 00 00 00 00 00 00 00 EE EE EE E0 EE 00 00 00 00 00 00 00 00 00 00 00 E0 EE E0 0E EE 
EE 00 00 00 00 00 00 00 00 00 E0 E0 00 00 00 0E 0E 00 00 00 00 00 00 00 00 00 00 EE 00 00 E0 EE 0E 00 00 00 00 00 00 00 00 00 00 00 E0 33 33 E2 00 00 00 00 00 E0 EE EE 0E 00 7E 0E EE EE EE CC EC 00 E0 0E 00 00 
00 00 00 00 00 E0 EE EE 00 00 00 00 00 00 00 00 00 00 00 00 00 EE E0 EE EE EE 00 00 00 00 00 00 00 00 00 00 E0 AA AA 9A 0E AE 0E 00 00 00 00 00 00 00 00 00 00 BE BB CE EC BB BB 0E 00 00 00 00 00 00 00 00 E0 EE 
E0 00 0E EE 0E 00 00 00 00 00 00 00 00 00 E0 E3 00 00 9E E9 E6 00 00 00 00 00 00 00 00 00 00 00 3E 33 E3 2E 0E 00 00 00 00 3E 33 33 E2 00 E0 E2 CD CC CD ED 0E 00 E0 E7 E0 EE EE 00 00 00 00 E0 66 66 0E 00 00 00 
00 E0 EE EE 00 00 00 00 E0 EE EE 66 66 E6 00 00 00 00 00 00 00 00 00 00 AE EE EE 99 E9 AE EA 00 00 E0 EE EE 0E E0 0E 00 00 E0 CE DC CD EB EE 00 00 00 E0 EE 0E 00 00 00 E0 6A EE 00 EE A6 0E 00 00 00 00 00 00 00 
00 00 E0 96 0E EE 99 9E 9E 0E 00 00 00 00 00 00 00 00 00 00 EE 33 EE 23 0E 00 00 00 00 3E 33 33 23 0E CE CC CC EE EC EE 00 00 00 7E DE CC CD EE 00 00 00 00 6E 99 E9 00 00 00 00 E0 66 66 EE 00 00 00 E0 11 11 66 
6E E6 00 00 00 00 00 E0 0E EE 00 00 AE 88 99 99 EE 7A EA 00 00 AE AA AA E9 00 EE 00 00 BE BB CE EC BB BB 0E 00 EE EE BB EB EE 0E 00 00 EE EB 00 BE EE 00 00 00 00 00 00 00 00 00 00 00 6E E9 99 9E E9 99 0E 00 00 
00 E0 EE 0E 00 00 00 E0 33 33 33 23 0E 00 00 00 E0 33 33 33 23 0E EE DE 3C C3 DC 0E 00 00 00 2E CC CC ED CC EE 00 00 00 EE EE 9E 0E 00 00 00 00 6E 96 99 0E 00 00 E0 11 11 E1 1E E1 00 00 00 00 00 EE EE EE 0E 00 
8E 99 99 E9 E2 EA A7 0E E0 AA 8A 88 99 0E AE 0E 00 E0 EE BE EB EE EE 00 E0 BB EC CC CE BB EB 00 00 E0 0E 00 00 0E 00 00 00 00 00 00 00 00 00 00 E0 33 99 E9 E1 99 EE 0E E0 0E 00 9E EE E9 0E 00 00 E0 EE EE EE 22 
0E 00 00 00 E0 E3 33 3E 23 0E 00 E0 EC C3 DC 0E 00 00 E0 CC EC CC DC EE CC 0E 00 E0 44 44 E4 E9 00 00 00 00 EE EE EE E9 00 00 E0 EE EE 1E 11 E1 00 00 00 E0 0E 6E 66 66 0E 00 EE EE EE 2E E1 7A 7E 0E E0 AA 88 99 
99 EE AA 0E 00 E0 44 EE 5E 55 0E 00 00 EE CC DD CC EE 0E 00 00 00 E0 EE EE 00 00 00 00 00 00 00 00 00 00 00 3E 99 99 1E 92 E9 69 0E 3E 0E 00 9E EE E9 E6 0E 00 EE EE EE EE 2E EE 00 00 00 E0 3E 3E E3 23 0E 00 00 
CE CC DD 0E 00 00 E0 CC CD EE CC ED EE 0E 00 6E 44 6E 44 EE 00 00 00 E0 44 44 44 ED 0E 00 00 00 00 1E 11 E1 00 00 00 EE EE 6E 6E 66 0E 00 AE AE AE 7E E1 E7 E0 0E E0 8A 88 99 E9 AE 7A EA 00 E0 EE 44 E4 5E 0E 00 
E0 BB EC CC CE BB EB 00 00 00 4E 88 54 0E 00 00 00 00 00 00 00 00 00 00 EE EE EE E9 9E 9E EE 00 3E 0E E0 99 9E 9E EE 0E E0 E3 2E 22 22 EE 33 0E 00 00 E0 33 33 33 23 0E 00 00 7E CD CC EE 00 00 E0 EE CE CC DC ED 
00 00 E0 44 44 44 D4 DD 0E 00 00 EE 44 4E D4 5D E5 00 00 00 00 EE EE EE 00 00 00 1E 11 11 EE 11 0E 00 51 1F 50 CC 7D CF 91 8E 25 40 5F 89 52 B9 1D CD 6F D0 89 17 E9 F9 F6 B6 2B 51 E9 ED 34 A3 3E B6 29 19 30 25 
73 25 E7 E4 55 60 D5 BF 9D 8D F4 79 1D E4 6E EA 4C 59 AE F5 53 72 1F 3C 28 BC 5A 3C A2 B3 51 D6 DD 20 67 40 12 BA 68 94 1F 44 3C DC 76 99 B1 EC E3 7D 8F 4B 34 E2 23 BE 2F 61 02 57 D0 15 93 06 B3 2B 59 3E 07 26 
6F DE 4F FC EC B2 29 FC 90 6C 4A 5E DA 98 36 CA 01 73 46 FA 77 2A 8A 44 E9 85 D0 A5 BA 03 E9 F5 8B 84 74 1F 15 7E 5B 5D EF 9A 53 1D A1 35 FD CB B5 B2 23 EA 7C 6B 17 5B 6E 65 03 EC EE 4D 1B CA B0 23 0A 1B ED 31 
8C 25 5D 1D 9A 33 DE 2E 1F 86 4A 6B 34 D3 7B A3 AC 21 8C F8 E3 20 81 CE BF B6 53 B1 A0 B8 41 5B 2C 73 BE 99 C9 6D 9A 7D AC AD 62 B9 F4 BB 1A 0C 6E A2 4F 90 9E E2 1B 05 F7 A5 CA D1 0E CD 13 7D F6 C2 2D D2 8C 95 
6D 47 EB A5 FB A9 B8 48 F2 65 B2 FB F2 67 6A 56 39 FA B3 E1 B4 72 70 F5 0E C7 76 9F 00 D2 55 F6 8C EA 00 FF FF FF FF FF FF FF FF FF FF 00 32 44 03 02 00 00 08 00 00 00 08 00 AE AE AE AE E7 0E 00 0E E0 8A 98 99 
E2 AE E7 EA E0 EE 44 44 44 54 EE EE E0 BB EE BB EE BB EB 00 00 00 4E 44 44 E5 00 00 00 00 00 00 00 00 00 00 00 00 00 EE EE EE 0E 00 9E E9 9E E9 99 9E E9 0E E0 E3 22 22 22 3E 23 0E 00 00 EE E3 EE 33 22 0E 00 EE 
87 D8 DC ED 00 00 00 00 E0 DC DC EE 00 00 E0 EE EE 4E 44 44 EE 00 E0 44 44 E4 44 44 DD EE 00 0E 0E 4E 64 E6 00 00 00 1E 11 11 11 11 0E 00 E0 EE EE 7A E7 0E 00 00 E0 98 99 99 E2 AE E7 E7 8E E5 E4 EE EE 54 5E E8 
00 EE E4 BB 5E EE 0E 00 00 00 4E EE 4E E5 00 00 00 00 00 00 00 00 00 00 00 00 00 E0 66 66 0E 00 E0 99 E9 99 99 E9 6E 0E 00 2E EE EE EE 32 E2 00 00 E0 33 33 33 2E E2 00 E0 77 88 8E CC ED 0E 00 00 EE EE 87 ED ED 
00 00 00 5E EE EE 44 44 D5 EE E0 EE EE 44 44 D4 E5 E5 E0 EE EE 4E 64 E6 00 00 00 EE EE EE EE EE 0E 00 E0 AA AA E7 8E EE 00 00 E0 E9 EE 2E 1E 7E 0E EE 5E EE E4 EE E9 54 5E E4 00 E0 44 EE 44 55 0E 00 00 00 4E AA 
EB 54 0E 00 B0 EB E0 EE EE 00 BB 0E 00 00 00 E0 33 63 E6 EE 3E 93 2E EE 99 6E E9 EE 00 2E 33 22 22 23 EE 00 00 3E 33 33 33 33 22 0E E0 EE EE 8C E2 DE EE 00 00 7E 77 E8 CD DC 0E 00 00 E0 E5 EE 4E D4 DD E5 E0 AA 
AA 5E 44 44 54 EE E0 44 44 44 EE EE 0E 00 00 4E 44 44 44 66 0E 00 AE EE EE 8E A7 E7 00 00 00 2E 22 E2 EE EE 00 E0 E0 55 4E 9E 99 5E EE E5 EE EE EE 44 EE 55 EE EE 00 E0 B4 AA BA 5E E5 00 BB EA 4E 88 54 EE AB EE 
00 00 00 E0 E3 33 E6 E3 93 99 E9 22 9E 99 EE E3 00 3E 33 33 33 23 E2 00 00 3E 33 33 33 33 23 0E 9E EC 14 41 DE EC E9 00 E0 EC EE CE D7 CE ED 00 00 E0 E5 EE 4E 45 54 EE EE BB BB BB 4E 55 54 0E E0 EE EE EE DD 1E 
0E 00 00 EE EE EE EE EE 0E 00 AE AE AE E7 AE E7 00 00 EE E7 EE EE E7 EA 00 00 00 EE 4E 9E 66 5E 4E E5 8E E4 44 54 55 E5 45 E8 00 E0 E4 6E 66 EE 55 0E EB EE 4E 44 44 E5 EE EE E0 EE EE 3E E6 33 E6 E6 EE EE EE EE 
EE EE EE E6 00 E0 33 33 33 23 EE 00 00 3E 33 33 33 33 23 0E CE ED 41 14 CE 9D ED 00 E0 EC 14 41 27 DE ED 00 E0 EE EE EE 4E 55 55 0E AE EE EE EE 54 BE 4E E5 00 E0 EA EE EE AA 0E 00 00 E0 E1 EE EE 1E 0E 00 7E 77 
7E 79 79 0E 00 00 AE AE 7A AA AE AA 0E 00 00 00 4E 6E 66 5E EE 0E E0 5E EE EE EE 5E E5 0E 00 4E AE 66 66 EA 55 E5 00 00 4E 44 44 55 EE 00 E0 33 33 63 3E 63 63 0E E0 33 33 63 66 36 66 0E 00 EE 33 33 33 E2 23 0E 
00 3E 33 33 33 33 22 0E E0 EE 1E 71 E2 EE EE 00 E0 EE 4E 14 E2 EE 0E 00 E0 AA AA BB 54 BE 4E E5 EE 0E 00 AE E4 EE B5 EA E0 EE EE 4E 44 EE EE 0E 00 EE AE DE ED EA EE 00 E0 EE E9 EE EE E1 00 00 8E E1 EE AE AE AA 
0E 00 00 E0 4E EE EE 55 0E 00 00 E0 4E 44 55 EE 0E 00 00 4E E4 EE EE 5E 55 E5 00 E0 44 EE 4E 54 55 0E 00 EE EE EE E6 E6 39 E6 E0 EE EE 39 E6 E6 33 E6 E0 23 3E 33 22 3E 22 0E 00 E0 33 33 23 22 EE 00 4E 4E EE EE 
EE 42 4E 0E E0 E4 E4 21 EE E4 E4 00 AE EE EE AE EB EE B5 EA 00 00 00 EE EE E0 EE 0E E0 66 66 EE EE 4E 44 0E 00 6E E6 EE EE EA E4 00 7E EA 98 AE 87 A8 0E 00 AE 78 8E E9 AE AA 0E 00 00 2E E5 44 55 E5 E2 00 00 2E 
E5 54 E5 54 E2 00 00 E0 44 44 55 55 EE 0E 00 4E 44 44 55 55 55 E5 E0 E6 39 66 EE 9E 93 E6 6E 9E 33 66 E6 9E 93 E6 E0 EE EE EE EE EE EE 00 00 00 EE EE EE EE 00 00 EE EE 0E 00 E0 EE EE 0E E0 EE EE EE EE EE EE 00 
EE EE 00 EE EE E0 EE 0E 00 00 00 00 00 00 00 00 E0 EE EE EE 0E EE EE 0E 00 EE EE EE EE EE EE 00 EE EE EE E0 EE EE 0E 00 EE EE EE EE EE EE 00 00 00 EE EE EE EE EE EE 00 00 EE EE EE EE EE EE 00 00 00 EE EE EE EE 
00 00 00 EE EE EE EE EE EE EE E0 EE EE EE E0 EE EE EE EE EE EE EE EE EE EE EE 00 00 00 EE EE 00 00 00 00 00 00 00 00 00 00 00 00 00 00 00 00 00 00 00 00 00 00 00 00 00 00 00 00 00 00 00 00 00 00 00 00 00 00 00 
00 00 00 00 00 00 00 00 00 00 00 00 00 00 00 00 00 00 00 00 00 00 E0 EE 00 EE EE 00 00 00 00 00 00 00 00 00 00 00 00 00 00 00 00 00 00 00 00 00 00 00 00 00 EE 0E EE 00 E0 0E EE 0E 00 00 00 00 00 00 00 00 00 00 
00 00 00 00 00 00 00 00 00 00 00 00 00 00 00 E0 EE B9 BB 0E 00 00 00 00 00 00 00 00 00 00 00 00 00 00 00 00 00 00 00 00 00 00 00 00 00 00 00 00 00 00 00 00 00 00 00 00 00 00 00 00 00 00 00 00 00 00 E0 E0 00 00 
00 00 00 00 00 00 00 00 00 00 7E EE EE 7E 33 0E 00 00 E0 EE 00 EE 0E EE 00 00 00 00 00 00 00 00 00 00 00 00 00 00 00 00 EE E6 E6 EE 5E E5 55 0E EE 0E EE 00 EE 0E 00 00 00 00 00 00 00 00 00 00 00 00 00 00 00 00 
00 00 00 E0 B9 2E E2 EB 00 00 00 00 00 E0 EE 0E 00 00 00 00 00 00 00 00 00 00 00 00 00 00 00 00 00 00 00 00 00 00 00 EE 00 00 00 00 00 00 00 00 00 00 00 00 EE EE EE EE EE 0E 00 00 00 00 E0 E0 00 00 00 00 EE 77 
37 63 EE E6 00 00 7E EE EE 7E E3 E6 00 00 00 EE EE 00 00 00 00 00 00 00 00 00 00 00 E0 E6 AE 7A AE E7 5A 0E EE E6 E6 EE 55 EE EE 00 00 00 E0 EE E0 EE 0E 00 00 00 00 00 00 00 00 00 00 E0 3E E3 22 BE 0E 00 00 00 
E0 9E BB EB 00 00 00 00 00 00 00 00 00 00 00 00 00 00 00 00 00 00 00 00 00 0E E0 EE 0E E0 00 00 00 00 00 EE 00 00 00 E0 77 33 13 EE 31 E3 00 00 EE EE EE EE EE 0E 00 E0 77 E3 33 E6 00 EE 00 00 EE 77 37 63 3E 0E 
00 00 E0 AA EA EE EE 00 00 00 00 EE EE 00 00 00 00 AE E5 7E E7 A7 E7 EE E0 E6 AE E7 7A 5E E5 00 00 00 DE DD DE DD ED 00 00 00 00 00 00 00 00 00 00 EE 33 EE 23 E2 EB 00 00 00 90 2B 23 BE 0E 00 00 00 00 00 00 00 
00 00 00 00 00 00 00 00 00 00 00 00 00 EE EE 55 ED EE 00 00 00 0E E0 EE 0E E0 00 00 EE EA 13 E1 1E E3 00 E0 77 37 13 EE 31 E3 E0 AE 3E E3 33 63 0E 00 00 E0 77 E3 33 E6 E0 00 00 EE AE BA BB AE EA 0E 00 00 E0 AA 
EA EE EE 00 E0 7A 5E A7 E7 7A AE E5 00 AE E5 7E 7E AE E5 00 00 E0 DD EE DE ED DD 0E 00 00 E0 EE 00 EE EE 00 00 EE 33 3E E3 E2 EB 00 00 00 EE 33 3E E2 EB 00 00 00 00 00 00 00 00 00 00 00 00 00 00 00 00 00 00 00 
00 EE E5 EE DE EE 00 00 00 EE EE 55 ED EE 00 E0 EE EE BE 7E E1 E1 00 00 EE EA 13 E1 1E E3 AE 1A E1 33 33 63 0E 00 E0 AE 3E E3 33 63 0E 00 00 AE AE BB BB EB AB 0E 00 EE AE BA BB AE EA 0E E0 EE 77 AA E7 7A AE E5 
E0 7A 5E 77 AE 7A EE 0E 00 DE DD ED DD ED EE 0E 00 00 DE DD EE DD DD 0E 00 3E 33 E3 EE E2 EB 00 00 00 3E E3 3E 23 BE 0E 00 00 00 00 00 00 00 00 00 00 00 00 00 00 00 00 00 00 00 E0 5E E5 EE 0E 00 00 00 EE E5 EE 
DE EE 00 BE BB BB CB 6E E1 E1 00 E0 EE EE BE 7E E1 E1 EE EE E3 33 33 33 E6 00 AE 1A E1 33 33 63 0E 00 00 AE AB BB BB BB BB 0E 00 AE AE BB BB EB AB 0E 1E 31 AE 7A AE E7 7A E7 E0 EE 77 7A AE E7 5A 0E 00 DE ED EE 
DD EE 00 00 00 E0 DD ED DD DD DE ED 00 E0 EE AE EE E2 EE 0E E0 EE 3E E3 33 2E BE 0E 00 00 00 E0 EE 00 00 00 00 00 00 00 00 00 00 00 00 00 EE EE EE 5E ED 0E 00 00 00 E0 5E E5 EE 0E EE BE EE EC EE 3E E1 0E 00 BE 
BB BB CB 6E E1 E1 21 4B 08 98 1C 0B E1 74 3F 45 A1 5C 73 E7 0C 22 5B 93 49 66 3B BF 70 93 7F B3 69 30 00 7D D7 32 3D 52 4C 20 15 ED 2B EA 64 F6 FF F7 8B 37 83 D8 41 13 C3 21 36 70 8A 64 D2 E1 5D 93 ED E5 12 2E 
57 F5 37 07 8D FF AB C5 EE 8B 32 78 BE 9F CC 31 9C F5 6B AF 78 C8 58 B1 9D A4 F3 96 B5 0B FD BA 87 88 D0 7D 26 52 C3 D8 63 C4 62 CB 57 92 84 63 BA D0 D6 27 21 AE 6C 2B 23 81 86 54 0E 30 26 AB 6A 22 5B 30 CF EE 
BA 58 21 C2 4A 4A 79 DE C5 65 C4 BD 65 CD 72 98 94 A6 94 7C 7A 69 E4 1D A5 98 0C 31 D4 86 D6 0B 1C 31 9A 72 DE 19 5E B8 01 6C 9E 9E C5 4B 8B 49 65 4C 59 BE 07 B6 6A 0F 94 41 A5 55 3C BD 2D F4 8B 95 35 5C 5E 93 
1D 37 27 3A D4 E3 28 26 BD 3A BF 83 16 91 39 DF D5 36 6C B3 24 87 37 ED B4 78 AC A5 56 B5 F2 00 B8 18 33 5F 93 19 08 31 D3 10 80 1F 4D 97 3F 3A E3 04 08 07 77 F9 BA 9E 93 D2 77 A5 01 BF 79 A3 84 1D 44 10 66 65 
5E 4F E9 AE 26 23 00 FF FF FF FF FF FF FF FF FF FF 00 32 44 04 02 00 00 08 00 00 00 08 00 E0 31 3E 33 63 33 63 0E EE EE E3 33 33 63 0E 00 00 AE BB BE EB BB EC 0E 00 AE AB BB BB BB BB 0E 1E E3 77 7A A7 AA E7 0E 
1E 31 AE E7 7A AE 5A 0E 00 DE DE DD DD ED 0E 00 00 DE ED EE DD DD EE EE 00 EE E6 E6 E6 E2 32 E3 3E E3 33 33 33 2E BE 0E 00 00 00 EE ED 0E 00 00 00 00 00 EE EE 00 00 00 00 E0 E4 33 E2 EE DE EE 00 00 EE EE EE 5E 
ED 0E BE EE CB EE EB E3 EE 00 EE BE EE EC EE 3E E1 0E E0 EE 13 31 63 3E 63 0E E0 31 3E 33 36 33 E6 00 00 AE BB BE EB CB EE 00 00 AE BB BE EB BB EC 0E E0 7E 7A A7 AC CA AE E5 1E E3 AE AA 7A 7A E7 00 E0 DD DD DD 
DD DD EE EE 00 DE DE DD DD ED 0E 00 E0 AE AE AE EE E2 22 E3 3E EE EE EE EE 22 EE 00 00 00 00 CE DD 0E 00 00 00 00 E0 CE DD 0E 00 00 00 4E 3E 33 23 E2 EE ED 00 E0 E4 33 E2 EE DE EE CE 3E EE E3 EC E1 E1 00 BE EE 
BB EE EB E3 EE 00 7E 3D AA 11 33 E6 63 0E E0 EE 13 31 63 3E E6 00 00 BE BB BB BB BB EC 00 00 AE BB BE EB CB EE 00 00 AE AA AA CA 77 7C E5 E0 EE AE CA AA EC 5E 0E DE DE DD ED DD DD ED EC E0 DD DD DD DD DD EE EE 
3E EE EE EE 2E E2 EE E4 BE E2 33 23 22 E2 32 0E 00 00 60 EE EE EE 00 00 00 00 C6 DC ED 6D 00 00 E0 E3 33 EE 3E 22 EE EE 00 4E 3E 33 23 E2 EE ED EE 7E 33 E3 EE EE E1 00 CE 3E EE E3 EB E1 E1 00 7E AE A3 13 33 E6 
33 0E 3E 36 AA 11 63 3E E6 00 00 EE BB EB BE BB EC 00 00 BE BB BB BB BB EC 00 00 7E A7 AA C7 CC E7 0E 00 1E E3 A7 7C CA 57 0E DE DE DD ED DD CC DC 0E DE DE DD ED DD DD ED EC BE 3E 33 23 22 EE 33 E5 BE 2C EE EE 
EE 2E 32 0E 00 B0 0B E0 EE 60 00 00 00 BB E0 EE EE 0E 00 00 E0 33 E3 E1 33 23 E2 0E E0 E3 33 EE 3E 22 EE EE 00 E0 77 33 11 11 0E 00 EE 7E 33 E3 EE EE E1 00 3E 3E 3A 31 31 E6 E2 00 2E 3E 3A 3A 61 3E 63 0E 00 E0 
BB BE EB BB EC 00 00 EE BB EB BE BB EC 00 00 E0 77 77 C7 EE 0E 00 00 EE 7E AA CC 7C EE 00 CE CC CE CC CC CC CC ED DE DE DD ED DD CC DC 0E BE EC EE EE EE E2 23 0E E0 EE 33 22 3E E3 32 0E 00 00 00 00 00 00 00 00 
00 00 00 00 00 00 00 00 E0 33 33 33 33 22 E2 EE E0 33 E3 E1 33 23 E2 0E 00 00 EE EE EE EE 00 00 00 E0 77 33 11 11 0E 00 2E 1E 13 13 31 66 0E 00 E0 AE A3 13 61 E6 33 0E 00 E0 BE BB BB CB EE 00 00 E0 BB BE EB BB 
EC 00 00 00 EE EE EE E2 00 00 00 E0 77 77 7C E2 0E 00 BE EC EC CE BB BB CB EC CE CC CE CC CC CC CC ED 3E 23 2E 4E 54 E5 EE EE 00 E0 EE 5E 3E E2 54 EE 00 00 00 00 00 00 00 00 00 00 00 00 00 00 00 00 E0 33 23 E2 
23 2E 22 EE E0 33 33 33 33 22 E2 EE 00 EE EE EE E0 EE EE 00 00 EE EE EE EE EE EE 00 E0 EE 3E 11 63 EE 0E 00 E0 EE 3E 11 63 EE E2 0E 00 AE EB CC CC EC BA 0E 00 AE BE BB BB CB AE 0E 00 EE 2E 0E E0 E2 00 00 E0 EE 
EE EE EE 2E EE 00 E0 BB BB BB BE BE BE EB BE EC EC CE CC CC CC EC 3E E2 32 E3 EE 3E 23 E2 00 3E 23 E2 2E 52 E5 E2 00 00 00 00 00 00 00 00 00 00 00 00 00 00 00 00 3E EE EE 3E E2 2E 22 EE EE 33 23 E2 23 2E 22 EE 
E0 CB 1E EE E0 E1 BC 0E E0 CB 1E EE EE E1 BC 0E 2E 2E EE 31 E6 E2 E2 00 2E 2E EE 31 E6 E2 EE 00 E0 BA CC EE EE AE CB EC E0 BA EC CC CC EC BA EC E0 66 2E 0E 6E 6E 0E 00 6E E6 E2 00 E0 E6 66 0E CE EE EE EE BB EE 
BB EB EE BB BB BB BE EB BB EB E0 EE EE 0E 00 E0 EE EE 00 EE EE EE E0 EE EE EE 00 00 00 00 00 00 00 00 00 00 00 00 00 00 00 00 EE EE 00 EE EE EE EE 0E EE EE EE EE EE EE EE EE E0 EE EE EE E0 EE EE 0E E0 EE EE EE 
E0 EE EE 0E EE EE EE EE EE EE EE 00 EE EE EE EE EE EE EE 00 E0 EE EE EE 00 EE EE EE E0 EE EE EE EE EE EE EE E0 EE EE 0E EE EE 0E 00 EE EE EE 00 E0 EE EE 0E EE EE 00 E0 EE E0 EE 0E EE EE EE EE EE EE EE EE 00 00 
00 EE EE 0E 00 00 00 00 00 00 00 00 00 00 00 00 00 00 00 00 00 00 00 00 00 00 00 00 00 00 00 00 00 00 00 00 00 00 00 00 00 00 00 00 00 00 00 00 00 00 00 00 00 00 00 00 00 00 00 00 00 00 00 00 E0 EE 00 EE EE 00 
00 00 00 00 00 00 00 00 00 EE 0E 00 00 00 EE 0E 00 00 00 00 00 00 00 00 EE 0E EE 0E E0 0E EE 0E 00 00 00 00 00 00 00 00 00 00 00 00 00 00 00 00 00 00 00 00 00 00 00 00 00 E0 EE EE EE EB 00 00 00 00 00 E0 EE EE 
00 00 00 00 00 00 00 00 00 00 00 00 00 00 00 00 00 00 00 00 00 00 00 00 00 00 00 00 00 00 00 00 00 00 00 00 00 00 00 0E 0E 00 00 00 00 00 00 00 00 00 00 00 7E E7 EE 7E 33 0E 00 00 00 00 00 00 00 00 E0 AA EB 00 
00 E0 AA EB 00 00 00 00 00 00 00 00 EE E6 E6 EE 5E E5 55 0E 00 00 00 00 00 00 00 00 00 00 E0 EE 00 EE 0E 00 00 00 00 00 00 00 00 00 00 E0 33 33 33 BE 0E 00 00 00 E0 9E EE B9 0E 00 00 00 00 00 00 00 00 00 00 00 
00 00 00 00 00 00 00 00 00 00 00 EE 00 00 00 00 00 00 00 00 00 00 00 00 E0 EE EE EE EE 0E 00 00 00 00 00 00 00 00 00 00 EE 77 37 63 EE E6 00 00 E0 EE 00 EE 0E EE E0 BA EC EE 0E E0 BA EB 00 00 00 00 00 00 00 00 
E0 E6 AE 7A AE E7 5A 0E 00 00 00 00 00 00 00 00 00 E0 DE DD EE DD ED 00 00 00 00 00 00 00 00 00 00 EE EE EE 3E EE EB 00 00 00 3E 3E 23 BE EB 00 00 00 00 00 00 00 00 00 00 00 00 00 00 00 00 00 00 EE EE EE E0 EE 
0E E0 00 00 00 00 00 EE 00 00 00 00 7E 37 33 E1 1E E3 00 00 00 00 E0 E0 00 00 E0 EE 77 33 3E E6 00 EE 00 00 7E EE EE 7E E3 E6 E0 CA AE AA EA E0 BB EC 00 00 00 00 00 00 00 00 00 AE 5A AE E7 A7 E7 EE 00 00 00 EE 
0E EE 00 00 00 DE DD EE DD ED DD 0E 00 00 00 00 00 00 00 00 00 AE AE AE EE E2 EB 00 00 00 3E E3 3E E2 BB 0E 00 00 00 00 00 00 00 00 00 00 00 00 00 00 00 00 E0 E3 33 3E EE 55 ED EE 00 00 00 0E E0 EE 0E E0 EE EE 
EE AE 3E 11 EE E1 00 E0 EE EE EE EE EE 0E AE 1A 3E E3 33 63 0E 00 00 00 EE 77 37 63 3E 0E E0 EB BA BB CB EE BE EC 00 00 E0 EE 0E 00 00 00 E0 AA EA A5 E7 7A AE E5 00 00 EE 55 E5 55 0E 00 E0 DD EE DD DD EE DE 0E 
00 00 00 00 00 00 00 00 00 AE EE AE EE E2 EE 00 00 00 EE 33 EE 23 BE 0E 00 00 E0 EE 0E 00 00 00 00 00 00 00 E0 00 00 00 3E 33 E3 31 E2 EE DE EE 00 00 00 EE EE 55 ED EE BE 3E EE EE EE EB 17 EE 00 7E 37 33 13 EE 
31 E3 EE EE E1 33 33 63 0E 00 00 E0 77 E3 33 E6 E0 00 00 EE BA EE BB EC BA 0E 00 00 AE AA EE EE 0E 00 E0 EE AE AA E7 7A AE E5 00 E0 A5 AE 7E AA E5 0E E0 DD DD ED DE ED EE 0E 00 00 EE 0E EE EE 0E 00 00 EE 66 E6 
E6 E2 33 0E 00 00 3E 33 33 23 BE 0E 00 00 CE 6C EC 00 00 00 00 00 E0 00 E0 00 00 00 3E 33 33 33 23 EE EE 0E 00 00 00 EE EE EE DE EE CE EE BB BB BB EC 16 EE 00 EE EE EE 13 E1 1E E3 00 E0 3E 3E 33 33 E6 00 E0 AE 
3E 33 EE 63 0E 00 E0 AA BB BE BB AB CB 0E E0 EE BA BB EB AA EE 00 1E 31 E3 7A AE E7 7A E7 EE 5E EE 7E EE 77 AE E5 EE DE DD EE DD DD 0E 00 00 E0 DD ED DD DD ED 00 00 E0 66 66 E6 E2 32 E3 00 00 EE EE EE 23 BE 0E 
00 00 E0 DE DC 0E 00 00 00 00 E0 00 CE 0E 00 00 EE 3E EE EE 33 E2 E5 0E 00 00 E0 5E 55 E5 EE 0E EE EE EB CE CC EE 1E 0E 00 E0 EE EE BE 7E E1 E1 F1 14 B8 82 89 FB 0D 5E D9 C9 A0 26 8C 84 75 CE 26 57 29 BF 36 1D 
B1 BF 0C AA 86 FF 72 2F 17 7D 67 FD 47 7A 5D E6 A2 C0 D6 29 20 06 EF BA 87 43 F8 30 26 F8 8A 90 9B 26 4B B0 BE B6 97 D0 04 41 27 39 AB 31 E7 BD A0 4C DB A9 99 A1 E2 B8 BE 0B CD AE 90 B1 4C F7 CA 9A FF 86 46 01 
16 90 08 3F 28 D1 F2 00 E5 47 EE 4A 5E C6 7C C8 B5 22 E4 37 64 C7 C6 16 E5 16 23 B7 DC BE 6C 5F 12 D1 14 87 5A 02 AF 88 0B D5 06 89 CD 2E 75 E2 FE F5 6D 42 F0 96 1F BA 25 39 42 CD 65 22 93 85 27 61 30 25 49 9F 
F6 27 77 D2 A1 E9 4E DA 0E 42 1B 2B F1 16 AE 0B D7 25 84 8C 52 2C 39 40 29 9C FC BE 06 6E 5C 04 76 35 DC 73 A9 3A 76 F3 2E 35 3A DC B0 DD E6 04 88 9B DA F6 B0 22 19 83 9F B3 09 B8 7F AD E8 98 D4 CB 3E 01 BC 64 
50 9D A6 CC 44 0D 92 D1 AC DB 36 05 EC E9 A0 87 B3 EF 59 34 00 A9 B5 2E 65 A4 EC D2 07 B3 82 7B B4 40 70 B4 37 AE 5F 9E 9F 77 21 75 0C 71 39 0D 00 FF FF FF FF FF FF FF FF FF FF 00 32 44 05 02 00 00 08 00 00 00 
08 00 00 00 3E 3E 63 33 63 0E AE 1A E1 33 33 63 0E 00 E0 BA BB BB EA BE EC 00 E0 EA BB CB CC BE EA 00 1E EE EE AE AA AA E7 0E 6E E6 E6 EE AA EE 7A E5 CE DD DD DD DD DC ED EE 00 DE ED EE DD DE DD 0E 00 EE E6 E6 
E6 E2 22 E4 00 00 AE AE AE 2E BE 0E 00 00 00 E0 DD 0E 00 00 00 00 E0 EE EC 0E 00 00 E0 EE EE EE 3E E2 DE EE 00 00 E0 EE EE 5E ED EE 00 E0 BE EC EE BE EE 0E 00 BE BB BB CB 6E E1 E1 E0 EE 33 3E 63 3E 63 0E EE EE 
E3 33 33 63 0E 00 E0 EE EE EE AB BE EE 00 E0 BA EE EE EE BA EB 00 E0 EE 99 7E AA 7A AE E5 E0 E6 EE 7A AE EA E7 0E E0 EE EE EE CE CC ED EC 00 DE DE DD DD ED EE 00 E0 AE AE AE EE E2 52 E4 00 E0 AE AE AE 2E EE 00 
00 00 00 00 DE 0E 00 00 00 00 E0 DD DD 0E 00 00 00 EE 6E 66 EE 23 EE ED 00 E0 EE E4 EE EE DE EE 00 E0 E3 1E 11 CE 1E 0E E0 BE EE CC EC EE EE 0E EE 33 EE 11 33 E6 63 0E E0 31 3E 33 36 33 E6 00 00 EE EE EE AE BE 
EC 00 E0 CA EC AA AE BB EE 00 00 E0 66 7E CA AA 7A E5 00 EE AE AA E7 7A AE E5 00 AE AE AE EE CC DD EE E0 DD DD DD DD DD ED 0E 3E EE EE EE 2E E2 EE E4 00 3E EE EE EE 2E 2E 0E 00 00 00 00 DE 0E 00 00 00 00 00 EE 
EE 00 00 00 00 EE 66 E6 EE 23 EE EE 00 4E 4E 2E E2 EE EE ED 00 E0 37 33 13 EE EE 00 E0 EE CB EE EE 33 EE 00 7E EE A3 13 33 E6 33 0E E0 EE 13 31 63 3E E6 00 00 E0 EE EE BE BE EC 00 E0 EB AE BB EB CB 0E 00 00 E0 
EE 7E 77 AC EC 0E 00 EE AA AA E7 7A 7E E5 00 EE EE EE EE CE DC 0E DE DE DD DE DD DD ED EC BE 3E 33 23 22 EE 33 E2 E0 EE 3E 33 22 E2 E2 EE 00 00 00 EE EE 60 00 00 00 00 60 00 00 00 00 00 E0 EE EE EE 3E 33 E2 0E 
00 EE 33 33 23 E2 EE 0E 00 00 7E 37 13 11 0E 00 E0 3E EE 11 BE 1E EE 00 3E 3E 3A 3A 31 E6 E2 00 3E 3E 3A 3A 61 3E 63 0E 00 AE EE EB BE CB EC 00 E0 AE BA CB EC EC 00 00 00 1E 31 E3 AA AC E7 00 E0 AA EA AA E7 7C 
EE 0E 00 AE AE AE AE CE CC ED EE DD DD ED DE CD DC EE BE EC EE EE EE E2 23 0E E0 E3 E3 EE EE EE 3E E2 00 00 00 00 00 00 00 00 00 00 00 00 00 00 00 00 3E 33 33 33 E3 2E E2 EE 00 3E 3E 3E 33 22 EE EE 00 00 E0 EE 
EE EE 0E 00 E0 7E 33 33 E1 EC 0E 00 2E AE A3 13 31 66 0E 00 2E AE A3 13 61 E6 33 0E 00 BE BB BB CB EC 0E 00 00 AE EB EE BE EE 0E 00 00 E0 EE 7E A7 EC 0E 00 E0 EE AA EE E7 CC 0E 00 E0 EE EE EE EE CC CC EC CE CC 
CE CC CC EC CC ED 3E 23 2E 4E 54 E5 EE EE E0 43 E2 44 E5 B3 3E E2 00 00 00 00 00 00 00 00 00 00 00 00 00 00 00 00 EE EE EE EE 3E E2 22 EE E0 3E 33 E3 2E E2 EE EE 00 EE EE EE 00 EE EE 0E 00 EE EE 11 E1 EE EE 00 
E0 EE 3E 1A 63 EE 0E 00 E0 EE 3E 1A 63 EE E2 0E E0 EA CE CC EC AE EB 00 E0 EA AE BA EE AE EB 00 E0 EE E2 EE EE 2E EE 00 1E 31 7E 77 7E EE EE 00 E0 BB BB BB CB BC CE EB BE EC EC CE CC BB BE EC 3E E2 23 E2 EE 3E 
23 E2 E0 52 E5 55 2E C2 2C E2 00 00 00 00 00 00 00 00 00 00 00 00 00 00 00 00 3E 22 EE EE 23 E2 22 EE 3E 3E 33 22 22 3E E3 0E E0 CB 1E EE 00 1E CE EE E0 BB 1E EE EE E1 CC 0E 2E 2E EE 31 E6 E2 E2 00 2E 2E EE 31 
E6 E2 EE 00 AE CB EC EE AE BA CC 0E AE CB AE CB EC BA CC 0E 6E E6 E2 00 E0 E6 66 0E 1E E3 EE EE E0 E6 66 0E BE EE EE EE BB EB BB EB E0 BB BB BB BB BE EB EB E0 EE EE EE 00 E0 EE EE E0 EE EE EE EE EE EE EE 00 00 
00 00 00 00 00 00 00 00 00 00 00 00 00 00 EE EE 00 E0 EE EE EE 0E EE EE EE EE EE EE EE 00 E0 EE EE EE 00 EE EE EE E0 EE EE EE E0 EE EE 0E EE EE EE EE EE EE EE 00 EE EE EE EE EE EE EE 00 EE EE EE 0E EE EE EE 0E 
EE EE EE EE EE EE EE 0E EE EE EE 00 E0 EE EE 0E E0 EE EE 00 E0 EE EE 0E EE 0E 00 E0 EE 0E EE 0E 00 EE EE EE EE EE EE EE 00 00 EE EE 00 00 00 00 00 00 00 00 00 00 00 00 00 00 00 00 00 00 00 00 00 00 00 00 00 00 
00 00 00 00 00 00 0E 00 00 00 00 00 00 00 0E 00 00 00 EE 00 E0 EE EE 0E 00 EE 00 00 00 00 00 00 00 00 00 E0 00 00 00 0E EE 00 00 00 00 00 00 00 00 00 EE 00 00 00 00 00 EE 0E 00 00 00 00 00 00 00 00 00 00 00 E0 
00 00 00 00 00 00 00 00 00 00 00 00 00 0E E0 E0 0E 0E E0 00 00 00 00 0E EE 00 EE 00 00 00 8E 88 EE 00 00 00 00 00 00 00 00 00 00 00 00 00 00 E0 0E EE 00 00 00 00 00 00 00 00 00 00 00 00 00 E0 E4 00 00 00 00 00 
EE E0 E4 E0 0E 00 CE EE CE CC CC ED EE ED EE 00 E0 EE EE 0E 00 EE 00 CE 0E EE EE EB CB 0E 00 E0 00 00 00 0E EE 00 BE 0E 0E 00 00 EE AA EA 00 00 00 00 00 00 00 00 00 00 EE 3E EE 00 00 00 00 00 00 00 00 00 00 00 
00 EE BE CE ED EB EE 00 00 00 E0 EB EC E0 EC 00 00 E0 33 33 81 0E 00 00 00 00 E0 EE EE 00 00 00 00 00 00 EE EE EE 0E 00 00 00 00 E0 0E EE 00 00 0E 00 EE E0 E7 E0 0E E0 00 E0 74 EE E7 7E E4 00 E0 CC DC BC DD ED 
DD 0E CE EE CE CC CC ED EE ED 00 DE EB 77 27 DE ED 00 00 CE 0E EE EE BB CB 0E E0 EB EB 00 E0 AA BB 0E E0 EE EE 0E EE EE EE 0E 00 E0 AA AA AA 0E 00 00 00 00 00 00 0E 00 00 00 00 BE BE CE ED EB EC 00 00 00 BE CE 
ED CE ED 00 00 3E 33 E3 33 E1 EE 00 00 00 E0 88 88 0E 00 00 00 E0 0E 6E 66 66 0E 00 00 00 00 EE EE EE 0E 00 E0 E0 74 0E 0E 7E E4 E0 00 00 EE E7 EE E7 0E 00 00 CE 8D BD DD D8 EE 00 E0 CC DC BC DD ED DD 0E 00 E0 
7E 22 22 EE 0E 0E 00 DE EB 77 27 BE ED 00 E0 EE EE 0E AE BB EE 00 AE BE AE E4 BB AA AA EA 00 BE BB EB BB EC EE 00 00 00 E0 EE E3 0E 00 00 00 BE DD CB BC DC EC 00 00 E0 CB BC BD DC ED E0 00 EE 33 EE 33 13 E2 00 
00 00 3E 33 13 E8 00 00 00 EE EE 6E EE 66 0E 00 00 E0 0E 6E 66 66 0E 00 E0 00 EE E7 EE E7 0E 0E 00 00 00 7E 33 0E 00 00 00 E0 DC D8 8D DC 0E 00 00 CE 8D BD DD D8 EE 00 E0 00 E6 62 2E 22 EE ED 00 E0 7E 22 22 EE 
0E 0E AE BE AE E4 BB EE AA 0E 4E BE 4E E4 BE EE EE 0E 00 EE BB EE BB CB ED 00 00 00 AE AA AA EA 00 00 00 BE ED BD DC DE EC 00 E0 E0 DB DB CB DD 0E E0 00 EE 33 3E E3 21 0E 00 00 E0 33 33 3E E1 EE 00 00 1E 11 11 
EE 11 0E 00 00 EE EE 6E EE 66 0E 00 00 0E 00 7E 33 0E 00 0E E0 00 7E 33 73 E7 00 00 E0 E0 DC D8 8D DD 0E 0E 00 E0 DC D8 8D DC 0E 00 DE EE 27 22 22 EE BD 0E E0 00 E6 62 2E 22 EE ED 4E BE 4E E4 EE BB BB EA E0 EA 
EA CE EB BB AA 0E 00 EE BB BE EB DC 0E 00 00 E0 BB BB BE EC EE 00 00 CE 9B BE ED D9 ED 00 E0 EE DC DB DC CD 0E EE 00 3E 33 E3 EE E2 00 00 00 E0 3E E3 3E 33 E2 00 00 1E 11 11 11 11 0E 00 00 1E 11 11 EE 11 0E 00 
00 0E 70 33 73 E2 00 0E 0E E0 EE 37 E7 23 0E 0E DE EE CC DD DD DD EE ED E0 E0 DC D8 8D DD 0E 0E DE 7E 22 22 EE ED DC EB DE EE 27 22 22 EE BD 0E E0 EA EA DE EB EE EE 0E BE AE BE EB BC EE BE EA 00 BE BB EB EE ED 
00 00 00 E0 BE EB BE BB ED 00 0E E0 DB CE ED DC 0E E0 E0 EC DE BC ED CD EE EB 00 E0 EE AE EE E2 EE 0E E0 EE 3E E3 33 2E 0E 00 00 EE EE EE EE EE 0E 00 00 1E 11 11 11 11 0E 00 E0 00 E0 37 E7 E2 00 E0 0E 3E 33 33 
33 2E 0E E0 DE ED EE EE EE EE EE EE DE EE CC DD DD DD EE ED 54 AD 49 A9 E9 62 A3 98 C3 6A A5 93 B7 AC 4F D1 FD 2E 2C 5D 97 58 44 1E 2E 16 52 3D EB BE EE BF 5F E7 E6 E5 F2 59 80 B8 8E E9 D4 67 31 99 C1 F5 EF 8B 
6D 15 A1 B7 36 2F B4 D4 0C 7B 5F 3D 92 14 7A 69 9A 2C FE A3 72 5B 41 CC A3 15 F8 44 16 E7 38 3E EB 5C 74 71 43 66 18 12 28 8B 9F D5 CF 2D 2D C2 E3 A4 2E B7 9A 3C 0A 21 2E B8 D3 FD B5 C7 9D 57 D1 8D F0 EC 06 94 
0A E2 89 34 73 C5 CE BA 84 6F CE 59 4C 03 B8 E5 B0 7D 16 D6 5A CA 24 33 E4 56 3B 5F 65 6E AA 2B BB C6 89 AF 6D EB FD D6 14 34 48 ED 49 F5 56 54 1C 50 8B A9 76 1F 74 98 6A E6 E5 2C BF E7 AB DF 1E B3 58 7C 75 3A 
3D F9 D6 98 E1 89 61 1E B6 D0 DD 9C 85 22 CF F3 8C 76 23 ED E4 D2 A7 24 99 72 68 78 EC D4 4E 25 7D 4B 34 7C 14 CD E8 C9 48 B7 7D DF 7C 0B 8F 2E E4 B3 5E 12 97 E8 CC 06 CF CE B5 05 61 2C 5D 82 A8 28 10 CC 23 9A 
84 BC 2F 5E 0E 68 57 DF 85 17 68 11 0B 6C 90 48 8C 1F 1A B8 00 FF FF FF FF FF FF FF FF FF FF 00 32 44 06 02 00 00 08 00 00 00 08 00 E0 2E 2E EE DD EC CE ED DE 7E 22 22 EE ED DC EB BE 6E BE EB BC 0E 00 00 BE EE 
BE EC BC 0E E0 0E 00 E0 EE AE EE ED EE 0E E0 EE BE EB BB DE 0E 00 EE E0 CC CD CC CD 0E EE E0 ED E9 DD 9E CD BE ED 00 EE EE EE EE E2 12 E2 3E E3 33 33 33 2E 0E 00 00 4E 44 44 44 66 0E 00 00 EE EE EE EE EE 0E 00 
E0 00 3E 33 33 22 0E E0 E0 E0 33 33 E3 2E 0E E0 DE CE EC BB CB DE EB EE EE CC EE EE EE EE BD EE BE EE E0 BB BE DE EC ED E0 2E 2E EE DD EC EB ED BE EE BE EC BC 0E 00 00 E0 0E CE CE EC 0E 00 00 00 EE EE EE EE ED 
CD ED BE EB BB BB BB DE 0E 00 BE BE CE CB DC EC EB EC 00 EE DB CD DD EC CB ED E0 AE AE AE EE E2 32 E1 3E EE EE EE EE 21 EE 00 00 4E 44 44 44 66 0E 00 00 4E 44 44 44 66 0E 00 00 EE 33 33 3E 23 EE 0E E0 00 EE EE 
6E 2E E2 0E EE CC DD EE EE DD BC EE CE DC ED BB CB DE CD EB CE ED E0 AA BE CE BE EC CE EB EC CB EC CE CE EC E0 AE CE CE EC 0E 00 00 BE 0E E0 EE BE 0E 00 00 E0 AE AE AE EE ED BD EC AE EE EE EE EE DC EE 00 DE DB 
EC EE EE CE BD ED E0 CB BE DC EC CE CD 0E 3E EE EE EE 1E E2 EE E3 3E E1 33 33 13 E2 32 0E 00 EE EE EE EE EE 0E 00 00 4E 44 44 44 EE 0E 00 00 0E EE EE 33 23 E2 00 0E 00 E0 66 66 2E E2 0E E0 DC CD CC DD DD DD 0E 
CE DD CC EE EE DD DD EC DE EB BE EE DC EE BE EC DE EB BE EC DE DB CE EC BE EE E0 EE BE 0E 00 00 EE 0E BE 0E CE EB 00 0E BE EE EE EE CE ED EE EB BE EC BB BB CB ED BD 0E E0 DB DC DB CC DD CD 0E E0 DC EC EE DE DC 
DC EC 3E 3E 33 33 21 EE 33 E2 1E 22 EE EE EE 2E 12 0E 00 E0 EA DD DD 1E E1 00 00 EE EE EE EE 1E E1 00 00 E0 33 33 33 23 E2 00 0E 00 6E 66 E6 23 E2 E0 E0 ED DE 98 99 ED DE 0E CE DD DE C8 9D ED CC ED E0 0E EE CB 
EE CC EB 0E E0 0E EE DE BD CD EB 0E EE 0E BE 0E CE EB 00 0E BE EC EB 00 E0 EC E0 EB AE BE BB BB DC EE BB ED CE DD EE EE EE DE CD 0E E0 EC BE BC BC ED CE 0E E0 ED DB CB DB DC EE ED EE E3 EE EE EE E2 21 0E E0 EE 
23 13 3E E3 23 0E 00 00 EE EE EE AA E1 00 00 E0 EA DD ED AA E1 00 00 E0 23 23 23 23 E2 00 E0 E0 EE EE 3E 23 E2 E0 E0 DC CE 8D D9 ED DC 0E E0 DC CE EE EE ED CC 0E 00 E0 DD EE DD DE EC 00 00 E0 DD EE DC DE EC 00 
BE EC EB 00 E0 EC E0 EB BE EE CB 0E 00 CE EE 0E EE EB EE EE EE ED DC 0E E0 EE DB CB BE EB DB 0E E0 DD CE DB DC ED DD 0E 00 EE BC DC CB CD DE ED 3E 22 2E 3E 21 E2 EE EE 00 E0 EE 2E 3E E1 21 EE E0 EE EE 4E 44 EE 
EE 0E E0 EE EE EE EE EE EE 0E 00 E0 33 32 32 22 E2 00 00 EE 33 33 33 22 E2 0E 00 EE DB CD DD DC EE 00 00 EE DB ED DE DC EE 00 00 EE DB EB EC CD EB 0E 00 EE DB EB ED CD EB 0E BE EE CB 0E 00 CE EE 0E E0 EB EB EB 
00 E0 EC EC BE DD DE BE DC ED EE EE 00 E0 EE DE BE EC DC EE 00 EE DB ED CE CD EE 00 00 CE DE CB CD DB EE EE 1E E2 13 E2 EE 3E 21 E2 00 3E 21 E2 2E 22 E2 E3 E0 66 66 EE EE 4E 44 0E E0 66 66 4E E4 4E 44 0E 00 00 
2E 23 22 22 0E 00 00 00 2E 23 23 22 0E 00 00 CE DD EE EE CC ED 00 E0 CC DD EE EE CC DD 0E E0 CB ED ED EE ED BC EC EE CB ED ED EE ED BC EC E0 EB EB EB 00 E0 EC EC 00 0E EE 0E 00 00 EE EE CE ED CB ED EE BE DC ED 
00 BE DC ED DE DD ED EB E0 CB DD 0E E0 DC DD 0E E0 DC ED EE EE DC DD 0E E0 EE EE 0E 00 E0 EE EE 00 EE EE EE E0 EE EE EE E0 EE EE EE 0E EE EE 0E E0 EE EE EE EE EE EE 0E 00 00 E0 EE EE EE 00 00 00 00 E0 EE EE EE 
00 00 00 EE EE 00 00 EE EE 00 E0 EE EE 00 00 EE EE 0E E0 EE EE EE E0 EE EE EE EE EE EE EE E0 EE EE EE 00 0E EE 0E 00 00 EE EE 00 00 00 00 00 00 00 00 E0 EE EE 0E 00 E0 EE EE 00 EE EE EE E0 EE EE EE E0 EE EE 00 
00 EE EE 0E E0 EE EE 00 00 EE EE 0E 00 00 00 00 00 00 00 00 00 00 00 00 00 00 00 00 00 00 00 EE E0 0E 00 00 00 00 00 00 00 00 00 00 00 00 00 00 0E 00 00 00 00 00 00 00 0E 00 00 00 00 00 00 E0 EE 00 EE 00 00 00 
00 00 00 00 00 00 00 00 E0 EE EE 0E 0E 00 00 00 00 00 00 00 00 00 00 00 00 00 00 00 EE 0E 00 00 00 00 00 00 00 00 00 00 00 00 00 00 00 00 00 00 00 00 00 00 00 00 00 00 00 EE EE EE 0E 00 00 00 00 00 E0 0E 00 00 
00 E0 EE EE EE 0E 00 00 00 00 00 EE EE 00 00 00 00 EE E0 EE EE EE 00 00 00 00 00 00 00 00 00 00 00 00 EE E0 E4 E0 0E 00 00 00 00 E0 E4 00 00 00 00 E0 EE BE CB EE EC 00 00 00 00 00 EE 0E E0 0E 00 00 7E 27 CE ED 
EB 00 00 00 00 00 00 00 00 00 E0 EE EE 0E 00 EE AA EA 00 00 00 00 00 00 00 00 00 E0 EE EE EE 0E 00 00 00 00 00 00 E0 00 00 00 00 00 EE BB CB CC EE 0E 00 00 00 0E BE 0E EE 0E 00 E0 33 33 33 EE 00 00 00 00 00 8E 
88 EE 00 00 E0 EE EE 66 66 E6 00 00 00 00 00 00 00 00 00 00 00 E0 74 EE E7 7E E4 00 00 00 00 E0 E7 00 00 00 00 CE CC C8 DC CC 0E 00 00 00 EE EE CC EC CE 0E E0 EE 27 26 E2 CE 0E 0E 00 00 00 00 00 00 00 00 AE BE 
AE E4 E0 AA BB 0E 00 00 00 00 00 00 00 00 00 E0 BB BB BB EE 00 00 00 00 00 EE 3E EE 00 00 00 E0 CB CD ED ED DD EE 00 00 E0 EB DB EE CB ED 00 E0 EE EE 3E EE 00 00 00 00 E0 33 33 88 0E 00 E0 11 11 66 6E E6 00 00 
00 00 00 E0 0E EE 00 00 00 00 EE E7 EE E7 0E 00 00 00 00 EE EE 0E 00 00 E0 CC 88 CC DD ED 00 00 00 E0 CC CC CC CE EC 00 7E 77 62 2E 22 EE 00 EE 00 E0 00 00 00 0E EE 00 4E BE 4E E4 BE BB EE 00 00 00 00 00 00 00 
00 00 00 E0 EE EE BE EE 00 00 00 00 E0 AA AA AA 0E 00 00 CE DD EC D9 CB ED 00 00 00 BE DC CB BD DD 0E 00 AE AE AE EE E3 00 00 00 00 3E 33 33 13 0E 00 E0 11 11 E1 1E E1 00 00 00 00 00 EE EE EE 0E 00 00 00 00 7E 
33 0E 00 00 00 00 EE E7 E7 E7 0E 00 E0 EE CE CC DD ED E0 00 00 BE CC CC CC ED 0E 00 2E 2E 2E 22 EE CD EE ED 00 CE 0E EE EE EB CB 0E E0 EA EA CE EB EE AA 0E 00 00 00 00 00 00 00 00 00 AE AE AE EE EB 00 00 00 00 
BE BB BB CB 0E 00 0E EE EE DE BD DD 0E E0 00 00 BE CD DD CB ED 00 00 AE EE AE EE E3 EE 00 00 00 3E E3 33 13 EE 0E E0 EE EE 1E 11 E1 00 00 00 E0 0E 6E 66 66 0E 00 E0 00 7E 33 73 EE 00 00 00 E0 74 3E 33 7E E4 00 
00 00 E0 CD DD ED E0 0E 00 BE DC DD CD ED E0 00 E0 E0 EB EE CD DE DB 0E 00 DE EB 77 27 DE ED 00 BE EE BE EB EB BB BB EA E0 EE EE 0E EE EE EE 0E 00 AE EE AE EE EB EE 00 00 00 BE EB BB CB EE 0E EE 90 99 E9 CB ED 
00 EE E0 0E CE BD CC DD EC 00 00 EE EE EE EE E3 31 0E 00 00 EE 33 EE 33 23 0E 00 00 00 1E 11 E1 00 00 00 EE EE 6E 6E 66 0E 00 0E E0 EE 37 E7 23 0E 0E 00 00 EE 77 73 E3 0E 00 00 00 00 DE DD 0E DE EE 00 CE 8D DD 
DD ED E0 0E 00 E0 BE EB DC CE BC 0E 00 E0 7E E2 22 EE 0E 0E BE 6E E6 EB EE EE EE 0E 5E BE 5E E5 BB AA AA EA 00 EE EE EE EE EB BC 0E 00 00 EE BB EE BB DB 0E BE 0E 69 E6 DC EC E0 EC E0 EB DE CE ED DD EC EE 00 E0 
EE EE EE E1 12 E3 00 00 3E 33 33 13 E2 00 00 00 00 EE EE EE 00 00 00 1E 11 11 EE 11 0E 00 0E 3E 33 33 33 2E 0E E0 00 00 E0 3E E3 27 0E 00 00 00 00 DE ED EE DD ED 00 EE D8 ED EE 0E DE EE F5 37 20 7D B3 92 A8 F4 
53 6B 44 66 CD B7 93 CD F5 61 0A 11 16 52 7F ED F8 83 9D BF 14 F9 74 ED 6D DA D0 E2 C3 CB EC 3B 0D FC CE 84 D8 9C 8F 1B CF 73 AE EC 1B 78 3B 6B 96 7F D3 54 29 77 30 1F 24 7D AB 9F B3 17 0E 58 0A 7C 88 69 A3 09 
E9 78 42 91 C7 6A 21 FA 3A 5C 53 61 56 41 3C 3F 91 DF 8B A7 B0 40 14 72 C2 6A F6 FD 40 3A 14 37 DC EE 75 E8 BB C1 02 AB 0C A0 4B DF 62 EC 54 69 03 40 B7 50 65 57 67 9D 0D 54 71 C7 F9 9D 0A 2F 77 6C A4 65 51 A2 
A3 D7 57 0E 15 63 28 1A 13 DC BE 1B 66 4D 36 79 82 9B 67 3A CE 35 47 97 4F 29 80 26 0D 3E 8C 4D 02 90 75 21 33 74 DD 7F D6 0A 2A AD 73 71 D3 83 8B 3B 0B 1C 03 A2 E7 EF 21 A0 C9 FA F8 8D 9F 81 CE BC 7C 44 09 EA 
00 FB 43 7F 07 DF 3A A5 6A 4C CA EE B3 D2 0F 37 1E D5 0E 2E 79 54 1E E5 86 73 77 82 AE 5C 2E 67 EF 81 30 90 E9 ED AD F7 35 F6 19 5D 3A 2E 25 81 78 CE 53 ED 86 CE 84 6A 27 9A CD 22 1B BB 00 FF FF FF FF FF FF FF 
FF FF FF 00 32 44 07 02 00 00 08 00 00 00 08 00 00 BE BE EA CB DE CB ED E0 00 EE 22 2E 22 EE ED CE 6E E6 EC EB 00 00 00 4E BE 4E E4 BE EE EE 0E 00 E0 EE EE EE EC CD EB 00 00 BE BB BB CB ED 00 E0 EC 66 E6 CD EC 
BE 0E E0 CC EE DC DB DE EC EB 00 EE EE EE EE E2 22 E3 00 00 E0 EE EE 23 0E 00 00 0E 0E 4E 64 E6 00 00 00 1E 11 11 11 11 0E 00 E0 E0 EE EE EE 2E 0E E0 00 E0 3E 33 33 23 0E EE E0 EE EE EB EE ED EE ED 00 E0 EE BE 
EC EE DD ED 00 DE AE CE ED BD EE EC DE EE 27 22 22 EE BD 0E E0 6E EE EC BC 0E 00 00 E0 EA EA CE EB BB AA 0E 00 EE EE EE EE ED DD EB 00 00 E0 EE EE DB 0E 00 BE ED EE DE EC DE CB ED 00 DE DE DC CC CD CE ED E0 AE 
AE AE EE E2 22 E3 00 E0 AE AE AE 2E EE 00 E0 EE EE 4E 64 E6 00 00 00 EE EE EE EE EE 0E 00 E0 00 EE EE EE 2E E2 0E E0 0E EE 3E 33 33 E2 0E CE BE BB EC DD BD EB ED 00 E0 BB CB CE EE EE ED E0 EB EE ED DE CC DB EB 
DE 7E 22 22 EE ED DC EB E0 EA EA CE EE EE 00 00 BE 6E BE EB BC EE BE EA E0 AE AE AE EE ED DD EB 00 E0 AE AE AE DE EE 00 CE CE DC CD CE CD CD EC 00 E0 ED CD DD EE DB EE 3E EE EE EE 1E E2 EE E1 00 3E EE EE EE 2E 
1E 0E E0 44 44 44 EE EE 0E 00 00 4E 44 44 44 66 0E 00 E0 00 EE EE EE EE E2 0E 0E E0 33 E3 3E 33 E2 E0 CE ED EE DE DD DE EB EE 00 CE EE EE BD EB EE EE 00 BE CB DE CC ED CB 0E E0 2E 2E EE DD EC EB ED CE EE EE EE 
EB EB 00 00 BE EE BE EC BC 0E E0 0E BE EE EE EE CE ED EE EC 00 BE EE EE EE DE CE 0E DE ED EE EE BD EE DD EC 00 00 BE EE EE DC ED ED 3E 3E 33 33 21 EE 13 E2 E0 EE 3E 33 13 E2 E2 EE E0 EE EE EE DD 1E 0E 00 00 EE 
EE EE EE EE 0E 00 0E 00 EE 66 66 E6 E2 E0 0E E0 32 33 E3 2E E2 E0 E0 CE D9 D9 ED CC ED EE E0 DC 8E 9D CE ED E0 EE 00 E0 EE CD DB EB EE 00 CE EB EB CB EC CE CE EB BE 0E 00 E0 EC CB 0E 00 E0 AE CE DE EE 0E 00 0E 
AE BE BB BB DC EE CB ED E0 EE BE BB CB ED ED EE E0 BE DC DB CB DE DC 0E 00 E0 CB BD CD CD EE 0E EE E1 EE EE EE E2 21 0E E0 E3 E1 EE EE EE 3E E1 00 E0 EA EE EE AA 0E 00 00 E0 E1 EE EE 1E 0E 00 0E E0 6E 66 66 E6 
E2 E0 0E E0 32 32 32 23 E2 E0 00 DE EE CE DD EE 0E E0 E0 EC EC EE EE ED 0E E0 00 E0 DD EE DD DE EC 00 DE EC CE EC BE DD BE ED BE EC 00 00 EE CB 0E 0E E0 EB EE CE DE EC E0 EB EE EC EE EE EE ED DC 0E E0 EB EC EE 
EE EE BE EC 00 CE DD DC DB ED EE 00 EE E0 DB DC EC DE 0E 00 3E 22 2E 3E 21 E2 EE EE E0 33 E2 13 E2 12 3E E1 E0 EE EE 4E 44 EE EE 0E 00 EE AE DE ED EA EE 00 0E E0 E0 EE EE 2E E2 E0 E0 E0 23 23 23 22 E2 E0 E0 EB 
ED DC DD 0E 00 00 E0 BE DE DE CE ED ED 00 00 BB DB EB EC CD EB 0E E0 EE ED CE DE CB EB 0E BE EE 00 00 E0 CE EE EB 00 CE DD CE ED CE EE 0E BE DD DE BE DC ED EE EE E0 BB ED CB ED CD BE EC E0 EB CB BD CC ED 00 00 
BE CE CC EB CE ED 00 00 1E E2 13 E2 EE 3E 21 E2 E0 22 E2 21 2E 22 22 E2 E0 66 66 EE EE 4E 44 0E 00 6E E6 EE EE EA E4 00 E0 0E 3E 23 22 22 0E 0E E0 00 3E 22 22 22 0E 0E CE DD EE CE DD ED 00 00 E0 DC ED EE CE ED 
ED 00 E0 CB ED ED EE ED BC EC E0 BD EC EC CE BE BC 0E E0 EB 00 00 BE EE ED 0E 00 E0 EC EB EC EB EC EC CE ED CB ED EE BE DC ED E0 DD ED DC DE DD DD ED BE DD EE EE CB DD 0E 00 CE DD ED BE DC ED 00 00 E0 EE EE EE 
00 E0 EE EE E0 EE EE EE EE EE EE EE E0 EE EE EE 0E EE EE 0E 00 EE EE EE EE EE EE 00 00 00 E0 EE EE EE 00 00 00 00 E0 EE EE EE 00 00 EE EE 0E E0 EE EE 00 00 E0 EE EE 00 EE EE EE 00 E0 EE EE EE E0 EE EE EE E0 EE 
EE 0E EE EE EE 0E 00 0E 00 00 E0 E0 0E 00 00 00 EE 0E EE 0E EE EE E0 EE EE EE 00 E0 EE EE E0 EE EE EE EE EE EE EE EE EE 0E 00 EE EE 0E 00 E0 EE 0E E0 EE 0E 00 00 00 00 00 00 00 00 00 00 00 00 00 00 00 00 00 00 
00 E0 EE 0E 00 E0 00 00 00 00 00 00 00 00 00 00 00 00 E0 EE EE EE 00 00 00 00 E0 EE EE EE 00 00 00 00 44 44 44 44 04 00 00 00 00 00 00 00 00 00 00 00 00 00 00 00 00 00 00 00 00 00 00 00 00 00 00 00 00 00 00 00 
00 00 00 00 00 00 00 00 00 00 00 EE 00 00 EE 00 00 00 00 00 00 00 00 00 00 00 00 00 00 00 00 00 00 00 00 00 00 00 00 00 00 00 00 E0 0E 00 00 EE 00 00 00 E0 0E 00 00 EE 00 00 00 00 CE ED 00 E0 0E 00 00 00 00 00 
00 00 00 00 00 00 6E 66 66 0E 00 00 00 00 6E 66 66 0E 00 00 00 40 04 04 00 04 44 00 00 00 44 44 44 44 04 00 00 00 00 00 00 00 00 00 00 00 00 00 00 00 00 00 00 00 00 00 00 00 00 00 00 E0 0E EE 00 00 00 00 00 00 
EE EE 00 00 00 00 00 EE 00 00 EE 00 00 00 00 E0 EE EE EE EE EE 00 00 00 00 00 00 00 00 00 00 DE EE EE E0 ED 00 00 00 DE EE EE E0 ED 00 00 00 00 DE CB 0E E0 ED 00 00 00 00 00 00 00 00 00 EE EE EE EE EE EE EE 00 
EE EE EE EE EE EE EE 00 00 40 40 44 44 44 40 00 00 40 04 04 00 04 44 00 00 00 00 00 00 00 00 00 00 00 00 00 00 00 00 00 00 00 00 00 00 00 00 00 00 AE EA AA 0E 00 00 00 00 E0 55 55 EE 00 00 00 00 00 EE EE 00 00 
00 00 00 AE AA AA AA BE EA 00 00 E0 EE EE EE EE EE 00 00 EE BB CB BE EC E0 0E 00 EE BB CB BE EC 00 0E 00 00 E0 BD 0E DE DC 0E 00 00 00 EE EE EE 00 00 00 EE AE EA AE EB 00 00 00 AE AA AA AA EB 00 00 00 40 40 00 
40 00 40 00 00 40 40 44 44 44 40 00 00 00 00 00 00 00 00 00 00 00 00 00 00 00 00 00 00 E0 0E EE 00 00 00 00 00 AE EA AA 0E 00 00 00 00 5E 55 66 96 0E 00 00 00 E0 55 55 EE 00 00 00 E0 AA BB EE BE EC 0E 00 00 AE 
AA AA AA BE EA 00 00 BE DD CC CB 0E BE EC 00 BE DD CC CB EE E0 EB 00 00 E0 BD EC DE DB 0E 00 00 EE BB CC 0E 00 00 00 EE AE EA AE EB 00 00 00 EE AE EA AE EB 00 00 00 40 44 00 40 00 44 00 00 40 40 00 40 00 40 00 
00 00 EE EE EE 0E 00 00 00 00 00 00 00 00 00 00 00 AE EA AA 0E 00 00 00 00 EE EA EA 0E 00 00 00 00 EE 66 E6 6E E9 0E 00 00 5E 55 66 96 0E 00 00 E0 BA EB E6 CB EC 00 00 E0 AA BB EE BE EC 0E 00 EE DD EC EE BD 0E 
E0 ED EE DD CC EE DC 0E E0 EC 00 00 E0 CD ED CD CB ED 00 E0 CB DD EE 00 00 00 00 AE AA AA AA BA 0E 00 E0 AE AA AA AA EE 0E 00 00 40 40 44 44 44 40 00 00 40 44 00 40 00 44 00 00 E0 CC CC DC ED 00 00 00 00 00 00 
00 00 00 00 00 AE EA AA 0E 00 00 00 E0 E4 4E EE E4 0E 00 00 00 4E 66 46 EE E9 EE 00 00 EE 66 E6 6E E9 0E 00 E0 BA BB BB CC EE 0E 00 E0 BA EB E6 CB EC 00 00 DE EC EC CD ED 0E E0 ED DE EC EC CD ED 0E BE ED 00 00 
00 EE EE CD DB ED E0 BE 6C D9 EC EE 0E 00 E0 EE EE EE AA EE 0E 00 AE AE AA AA EA AA EB 00 00 40 40 00 40 00 40 00 00 40 40 44 44 44 40 00 00 CE CC CC CC DD 0E 00 00 00 EE EE EE 0E 00 00 00 EE EA AE EE 00 00 00 
4E 44 44 44 54 E5 00 00 00 EE 66 E6 EE E9 66 0E 00 4E 66 46 EE E9 EE 00 E0 EE EE CE EC BE EE 0E E0 BA BB BB CC EE 0E 00 EE EE CE BB EE 0E EE ED EE EE CE BB EE EE DE 0E 00 00 EE BB EC BD CD EC 3E E3 9D CD EC BB 
ED 0E AE AE AE AE EE AA EB 00 BE EE EE EE EE EA EB 00 00 00 44 00 40 00 04 00 00 40 40 00 40 00 40 00 91 EF BF B1 A0 4E A1 67 15 27 B8 20 5E 00 5E 46 23 AC 27 CF 27 B8 42 00 E5 54 25 CA 56 9C 1A 2C 5A 57 37 22 
9B 48 93 B5 55 34 88 0E 85 0B FA 1A 56 58 17 4B 28 95 28 76 D4 7D 33 02 FA D6 78 74 22 C0 47 BE 8A 7F 97 E2 BF 98 80 01 58 7A E2 4C C1 C0 99 70 51 D9 F7 D4 F2 B8 12 7A 38 3E 86 1C B4 05 D7 8D 7C AE 87 B0 16 EA 
D0 37 74 E6 D4 58 B6 D5 02 7D E8 0C 59 03 6C 27 08 F9 F1 79 3D CD 3F 8D FC 99 90 E3 27 E8 16 8F B9 36 B3 16 95 86 8E 34 03 72 44 1A F3 FB 01 64 A5 89 8F 60 E7 78 0B FA BD 26 D3 D9 70 95 D8 BE 41 53 D1 38 13 85 
02 67 55 02 12 CF 1A 16 05 47 D3 D7 DB 16 F2 04 49 E0 96 E7 9D 45 BE C8 52 E8 4D 15 47 7D 16 37 80 BB 4D E3 4B 40 9D 4D 16 AD 6D A3 E7 6D E0 01 A9 A6 DC 92 96 D2 83 74 0B E8 5B 9B 3D 6A 52 E0 4B 3C F2 B7 47 F6 
4E 3B FA 80 46 08 53 8C 74 4C C6 8F 3A D6 03 E8 C8 BA D3 93 8A 81 DA 33 C6 B7 49 A6 16 33 00 82 2C DB 00 FF FF FF FF FF FF FF FF FF FF 00 32 44 08 02 00 00 08 00 00 00 08 00 00 CE CE CC CE DC 0E 00 00 E0 CC CC 
DC ED 00 00 E0 E4 4A AE E5 0E 00 00 4E 44 44 44 44 E5 0E 00 00 6E EE 6E 96 E9 69 0E 00 EE 66 E6 EE E9 66 0E 00 AE BA EC CE EE AE 0E E0 EE EE CE EC BE EE 0E E0 BB BB DD BD EE CB 0E E0 BB BB CD BD EE CC 0E 00 E0 
CB DD DE DC ED 0E EE EE CC DB ED BD DC EC BE 9E E9 E9 E9 EA EB 00 EE AE AE AE EE EB EB 00 00 40 44 44 44 44 44 00 00 00 44 00 40 00 04 00 00 CE CE CC CE DC 0E 00 00 CE CC CC CC DD 0E 00 4E 44 44 44 54 E5 00 00 
EE EE EE EE 44 54 E5 00 00 E0 66 66 E6 EE E9 0E 00 6E EE 6E 66 E9 69 0E 00 E0 EE EE EE BC BE 0E 00 AE BA EC CE EE AE 0E 00 EE EE BD EC EE BB ED 00 EE EE DD DC CD DD 0E E0 CE 6C D9 ED ED 0E EE E0 23 DE BC EC CD 
CB ED EE EE EB EB EB EB EB 00 0E EE EE EE EE BE BA 0E 00 44 40 00 40 00 40 04 00 44 44 44 44 44 44 04 00 CE CE CC CE DC 0E 00 00 CE CE CC CE DC 0E 00 4E 44 44 44 44 E5 0E 00 E0 44 44 54 4E 45 E5 0E 00 E0 99 99 
99 EE 6E E6 00 E0 EE EE E6 EE E9 0E E0 EE AE CB EC AE EE 0E 00 E0 EE EE EE BC BE 0E 00 00 DE DD BD ED DC ED E0 BD DC DC DC CC ED 00 3E E3 9D BD EC DC EE ED 00 EE EE EE ED BC DC EC 0E EE EE EE EE BE BA 0E 00 AE 
BB AA AB BB BA EB 00 04 44 44 44 44 04 04 40 04 04 00 40 00 00 44 00 CE CC CC CC DC 0E 0E 00 CE CE CC CE DC 0E 00 EE EE EE 44 44 54 E5 00 00 AE AA AA 4E 55 54 0E 00 6E EE EE EE 6E 9E E6 00 E0 99 99 99 6E 9E E6 
E0 BA EE EE BE BA CE 0E E0 EE AE CB EC AE EE 0E 00 00 CE EE DD BD BE ED BE DE EE DD CD BC ED 00 EE EE BC CB DE CC DC EC 00 00 00 CE EC BD BD 0E 00 AE BB AA AB BB BA EB 00 AE EE AE AE EE EA EE 00 04 40 00 40 00 
00 04 40 40 44 44 44 44 44 40 00 CE AC AA CC DC 0E 0E 00 CE CE CC CE DC 0E 00 E0 44 54 4E 54 44 E5 00 00 EE AA 4E 54 5E 55 0E E0 E5 BB BE BB EE E6 EE 00 6E EE EE EE EE E6 E6 00 EE CE CE AE EB AE 0E E0 BA EE EE 
BE BA CE 0E 00 00 DE BE EC DD BE ED DE BE ED DD DD DE EB 0E E0 23 DE DC BC DB CD ED 00 00 00 E0 DE BB DD 0E 00 AE EE AE AE EE EA EE 00 EE E0 AE EE EE EA 00 00 44 40 00 40 00 40 04 40 04 04 00 40 00 00 44 00 DE 
AC AC CC DD ED 0E 00 CE CC CC CC DC 0E 0E 00 AE AA 4E 54 45 E5 00 E0 44 EE 44 EE E0 4E E5 E0 EB EE EE EE BE E6 0E E0 E5 BB BE BB BE E6 EE 00 E0 EE BE EE EE EE EE 00 EE CE CE AE CB AE EE 00 E0 CE DE EE EE EE ED 
CE DE EC EE EE DE DC EB 00 EE EE DE CB CD CC 0E 00 00 00 00 DE CB ED 00 00 EE E0 AE EE EE EA 00 00 0E E0 E0 E0 00 0E 00 00 04 44 44 44 44 04 04 40 40 44 44 44 44 44 40 00 E0 AD AA CD ED EE 00 00 CE AC CA CC DD 
0E 0E 00 4E EA 4E 54 EE 54 0E E0 EE E0 EE 00 5E EE E4 00 EE BB BE BB EE EE 00 E0 EB EE EE EE EE EE 0E E0 EE BA EE EE AB EC EC E0 EE EA BE EE EE EC EC 00 DE EB BD ED E0 BD ED E0 EE 0E 00 E0 ED DD EC 00 00 E0 BB 
DC DD EE 00 00 00 00 00 DE EC 0E 00 00 0E E0 E0 E0 00 0E 00 00 00 00 00 00 00 00 00 00 04 40 00 40 00 00 04 40 00 04 00 40 00 00 40 00 00 DE EE DE 0E 00 00 00 DE CC CA DD DD ED 0E E0 E4 EE 44 E5 44 54 0E 00 00 
00 00 E0 54 4E E5 E0 6B EE EE EE 66 BB 0E 00 6E BE BE EB 66 BB 0E AE AE CB 0E AE AE AE 0E AE AE CB EE CE AE AE 0E 00 EE EE EE 0E E0 EE EE 00 00 00 00 00 EE EE 0E 00 00 00 EE EE EE 00 00 00 00 00 00 EE 0E 00 00 
00 00 00 00 00 00 00 00 00 00 00 00 00 00 00 00 00 40 44 44 44 44 44 00 00 44 44 44 44 44 44 04 00 EE EE 00 E0 EE EE 00 00 E0 EE EE EE EE EE 00 E0 EE E0 EE 0E EE EE 0E 00 00 00 00 E0 EE E0 EE E0 EE EE 00 00 EE 
EE 0E 00 EE EE EE EE EE EE 0E EE EE EE 0E EE EE EE 0E EE EE EE 0E EE EE EE 0E 00 00 E0 00 00 0E 00 0E 00 00 00 00 00 00 00 00 00 E0 EE 0E 00 E0 00 00 00 00 00 00 00 00 00 00 00 00 E0 EE EE EE 00 00 00 00 00 E0 
EE 0E 00 00 00 00 44 44 44 44 00 00 00 00 00 00 00 00 00 00 00 00 00 00 00 00 00 00 00 00 00 00 00 00 00 00 00 00 00 00 00 00 00 00 00 00 00 00 00 00 00 00 00 EE 00 00 00 00 00 00 00 00 00 00 00 00 00 00 00 EE 
EE EE EE EE 0E 00 00 00 00 00 00 00 00 00 00 00 EE 00 E0 0E E0 EB 00 00 00 00 00 00 00 00 00 00 CE ED 00 E0 0E 00 00 00 00 00 00 00 00 00 00 00 6E 66 66 0E 00 00 00 00 E0 EE 0E 00 00 00 00 40 00 04 40 00 04 00 
00 00 00 44 44 44 44 04 00 00 00 00 00 00 00 00 00 00 00 00 00 00 00 00 00 00 00 00 00 00 00 00 00 00 00 00 00 00 00 00 00 00 EE 0E 00 00 00 00 00 00 00 00 00 00 00 00 E0 AA AA AA EA AB 0E 00 00 00 00 00 00 00 
00 00 00 E0 EB 00 BE 0E E0 EC 00 00 00 00 00 00 EE 0E 00 00 DE EE EE DE EC 00 00 EE EE 00 00 00 00 E0 EE EE EE EE EE EE EE 0E 00 00 EE EE 0E 00 00 00 00 40 44 44 44 44 04 00 00 00 40 04 04 40 00 44 00 00 EE EE 
EE 0E 00 00 00 00 00 00 00 00 00 00 00 E0 0E EE 00 00 00 00 00 00 00 00 00 00 00 00 00 EE 55 E5 00 E0 EE 0E 00 EE 00 00 EE 00 00 00 AE BA 6B BE CB EE 00 00 00 E0 EE EE EE EE 0E 00 00 E0 EE EE CB EE E0 ED 00 00 
00 00 00 00 BE EC 00 00 EE BB CC DE DC 0E 00 E0 DC EE EE 0E E0 EE AE EE AE EA AE EB EA 00 00 00 EE EE EE 00 00 00 00 40 40 00 04 00 04 00 00 00 40 40 44 44 44 40 00 E0 CC EC DE ED 00 00 00 00 00 00 00 00 00 00 
00 AE EA AA 0E 00 00 00 00 00 00 00 00 00 00 00 E0 55 65 6E 0E 6E 6E E9 00 00 EE EE 00 00 00 00 AE BB EB B6 CB 0E 00 00 00 AE AA AA AA BE EA 00 00 E0 BB CB CE BE BE ED 00 EE 00 00 00 0E E0 ED 00 E0 CB D6 EE DE 
DB 0E 00 00 EE BB CB EE DE ED AE AE AA AA AA EB EA 0E 00 EE EE EE 6E EE 00 00 00 40 40 00 04 00 04 00 00 00 40 40 00 04 00 40 00 CE CC EE CC DD 0E 00 00 00 00 00 00 00 00 00 00 AE EA AA 0E 00 00 00 00 00 00 00 
00 00 00 00 5E 65 E4 6E E6 66 6E E9 00 E0 55 55 EE 00 00 00 AE BB BB CB CC EE 0E 00 E0 AA BB BB BB EC EE 00 E0 BE BC EC BC EE DB ED 00 DE EE EE E0 ED E0 ED E0 CE 6D D9 EC CD BB ED 00 E0 CB CD EE DE BC EC BE EE 
AA EA AE EB BA 0E EE EE 66 66 E6 EE EE 00 00 40 44 44 44 44 04 00 00 00 40 44 00 04 00 44 00 EE EE EE CC DC 0E 00 00 00 00 00 00 00 00 00 00 EE EA AE EE 00 00 00 00 E0 0E EE 00 00 00 00 5E 66 4E 66 E6 96 9E E9 
00 5E 55 66 96 EE EE 00 EE EE CE CC EC AE EE 0E E0 BA BB BE CB EC 00 00 DE CD CB BE BC BE DD 0E 00 EE BB CB BE EC BE 0E 3E E3 CC CD EB BD CD ED E0 CE 9C DD EC CD CB ED E0 9E EE 9E E9 AA EE 0E E0 EE EE EE EE EE 
00 00 00 44 44 44 44 04 44 00 00 00 40 40 44 44 44 40 00 AE AA AA CE DC 0E 00 00 00 00 00 00 00 00 00 E0 E4 4A AE E4 0E 00 00 00 AE EA AA 0E 00 00 00 EE EE 66 66 E9 99 EE 0E 00 EE 66 E6 66 E9 E6 0E E0 E0 E0 CC 
EC BE AE 0E E0 BA BB EB CE EE 0E 00 EE EE EE CC EB BB DB ED EE BB ED CC CB EE CB ED EE EE DE BB DC BE DB EC 3E E3 DD 96 ED BD BD ED 00 9E 99 99 E9 BA EB 00 00 AE AA AA AA BA 0E 00 40 40 04 00 00 44 00 04 00 00 
40 40 00 04 00 40 BA C1 7E 03 57 2F 12 3D 4F 8F 75 3A D4 97 C4 42 CE 1F 7E AE 66 CF 09 BF 9F 48 BB 6E C5 B8 20 49 C3 88 06 EB 0C A4 5F 55 64 B2 50 02 35 4F A2 90 14 D9 E2 CF 05 5B AE 35 7D 66 96 F5 1E 35 43 04 
0C B7 D6 5F B5 9C 7D D7 A0 4B D8 54 9B B5 A1 7D A9 48 B3 A8 D8 E8 90 C5 3A 62 F9 CE 16 8E 41 9C F2 A2 99 71 C7 D0 3A 6D 56 DF 03 92 2E 21 48 34 2E 97 D9 0F 91 59 4B 39 47 5D 47 66 B1 B9 B9 3B D7 40 A9 A4 EC FD 
44 4D E0 79 61 12 7C 74 72 36 F9 6B 22 2F 89 33 2C 79 1C 31 EB 36 F6 C1 FE 07 19 BE 76 C1 E5 29 3F E9 72 FD 2B A0 FA BF 17 57 0F 04 C0 3D 59 F5 AC 04 91 A3 D2 B7 BC ED B8 F6 F9 D3 8C FB 15 85 BE 46 DE ED 4E 43 
D2 7B C4 15 67 3E DA E9 FC 43 20 A2 DA 6B E2 61 C1 33 18 78 C1 44 64 DF F1 AC B0 BE 73 18 DA 1C 3B 58 79 0B 74 D9 38 D3 8A 6E D3 6B C6 2D C4 23 8D 6B 50 D9 61 CA 91 EE 10 16 F8 C3 A2 0C 30 CC AE 2C BB 37 F1 42 
C1 13 48 F6 87 7B 00 FF FF FF FF FF FF FF FF FF FF 00 32 44 09 02 00 00 08 00 00 00 08 00 00 E0 EE EE EA DC 0E 00 00 00 00 00 00 00 00 00 4E 44 44 44 54 E5 00 00 00 AE EE AE 0E 00 00 00 00 00 6E 66 E9 E9 BE EB 
00 6E 66 66 EE E9 66 0E 00 00 00 EE CE EE EE 0E E0 EE EE CE CC BE EE 0E E0 ED 99 CE EB BE DC ED DE DC CC EE DC BE DC ED 00 00 E0 BD CD BE ED 0E EE EE CE DD CB BE DB EC 00 9E 69 66 E6 AA EB 00 00 EE AE EA AE AA 
0E 00 40 40 00 00 00 04 04 04 00 40 44 44 00 04 00 04 00 00 E0 EE AE DE 0E 00 00 00 E0 EE EE 0E 00 00 EE EE EE EE 4E E5 0E 00 00 EE EA EA EE 00 00 00 00 00 E0 96 E9 BE AB EA 00 6E EE 6E 66 E9 69 0E 00 00 E0 CB 
EE BC BE 0E 00 AE BA EC EE EE AE 0E 00 DE 9E EE DC CE CC ED EE EE CE CC ED CD CD ED 00 00 00 CE DB CE 0E EE 00 00 E0 BC DC BE DC 0E 00 EE 66 66 AE AA BB 0E 00 AE AA AA AA EB EA 00 00 04 44 44 44 40 40 00 00 44 
00 44 44 44 44 00 00 00 E0 EE AE DE 0E 0E 00 E0 CE CC DC ED 0E 00 00 EE EE EE 4E 54 E5 00 E0 E4 4A EA 54 EE 00 00 00 00 E0 E6 EE EE AA EA 00 E0 EE EE 66 E9 E9 EE E0 EE BE CC EE AE EA 0E 00 E0 EE EE EE BC BE 0E 
00 DE 6E E6 BB DC CC ED E0 ED EE DD DE DC DC EC 00 00 00 DE EC CD EE ED 00 00 00 CE DD CE EE 00 00 AE EE EE AA AB BA 0E 00 EE EE EE AE EA EA 00 00 44 40 00 04 00 44 00 00 04 44 44 44 44 04 04 00 00 E0 EE AE DE 
0E 0E 00 CE CC CC CC DC ED 00 E0 66 96 EE 4E 44 E5 00 4E 44 44 44 54 5E 0E 00 00 00 E0 E6 66 E9 EE 0E 00 E0 EE EE E6 EE EE E6 E0 AA EB EE EC AB EB 0E 00 EE AE CB EC AE EE 0E E0 EE EE EE DB DD ED EC 00 EE EE BC 
DB DE ED EC E0 EE EE CD DE CB CD EB 00 EE EE DE EC BD DC 0E 00 AE AB BB AE BE BA 0E 00 EE EA EA EA EA EA 00 00 04 44 44 44 44 40 00 00 04 40 00 40 00 00 04 00 E0 EE EE EA DC ED 0E 00 CE CC CC CC CC ED 00 00 EE 
99 E9 44 55 E4 00 4E 44 44 44 44 44 E5 00 E0 EE EE E9 6E E9 00 00 00 6E 66 66 66 BE BE EE 00 EE BE CE EE AA EC EE 00 AE EE EE EE AB CE 0E E0 BB BB BB DE ED CE ED E0 BB BB DB DE ED CE ED E0 23 DE BD BC BC BC ED 
00 3E E2 DD DB CB BD EC 00 AE EE BE AE EE AA EB 00 EE EE EE EE EA BB 0E 00 04 40 00 04 00 40 00 00 44 40 00 40 00 40 04 00 AE AA AA CE DD EE 00 00 CE EE CC EE CC ED 00 E0 EE EE 4E 55 55 E4 0E EE EE EE EE 44 45 
E5 00 E0 65 96 E9 9B 0E 00 00 E0 EB EE EE EE 5E 65 EE 00 AE EE BE EE EE EE EC 00 BE CE CE EC AA BE 0E E0 EE EE EE DC 0E DE ED 00 EE EE EE CD 0E DE ED 00 EE EE EE BD CD DD 0E 00 E0 EE EE BD DC EE ED 00 EE E0 BE 
EE EE EA EE 00 AE BB AA BB BA EE EB 40 40 44 44 44 44 04 04 00 04 44 44 44 44 04 04 00 E0 EE EE CC ED 00 00 00 EE CE CC EC CE DD 0E E0 44 44 54 AE EE 54 0E E0 44 44 E5 54 EE E4 00 00 EE EE EE EE EE 00 00 E0 E5 
BB BE BB 5E 96 EE E0 EE BA EE EE AC EB 0E E0 EE EC BE EE EE EB EC DE ED BD DC ED E0 CD ED E0 DD DE CB ED E0 CD ED 00 00 00 CE DC DD EE 00 00 00 00 BE DC ED 00 EE 00 0E E0 E0 E0 00 0E 00 E0 AA BE EA BE EA EB EB 
40 00 04 04 04 04 00 04 00 04 40 00 40 00 00 04 00 00 CE EE DE 0E 00 00 00 DE CC CC CC DC DD EE 4E EE EE 44 E5 44 55 0E 4E AE AA 4E E5 44 55 0E E0 6B E9 EE 66 BB 0E 00 E0 66 BE BE EB 66 99 0E AE AE CB 0E AE AE 
AE 0E AE AE CB EE BE AE AE EE EE EE EE EE 0E E0 EE EE E0 EE EE EE 0E E0 EE EE 00 00 00 E0 EE EE 00 00 00 00 00 E0 EE 0E 00 00 00 00 00 00 00 00 00 00 E0 EE EE EE EE EE EE EE 40 44 44 04 44 44 44 04 00 40 44 44 
44 44 44 00 00 EE EE 00 E0 EE EE 00 00 E0 EE EE EE EE EE E0 EE EE E0 EE EE EE EE 0E EE EE EE EE EE EE EE 0E E0 EE EE E0 EE EE 0E 00 00 EE EE EE EE EE EE 0E EE EE EE 0E EE EE EE 0E EE EE EE 0E EE EE EE 0E 00 00 
00 00 00 56 05 05 60 05 00 00 00 00 00 00 00 00 00 00 00 00 00 00 00 00 EE 00 E0 0E EE 00 00 00 00 03 B0 00 00 00 00 EE 0E 00 00 BC CB 00 E0 0E 00 00 00 0C 00 00 00 AA 07 00 00 00 00 00 00 00 00 00 00 00 00 00 
00 00 00 00 00 00 00 00 00 00 00 00 00 00 00 00 00 00 00 00 00 00 00 00 00 00 00 00 00 00 00 00 00 00 00 00 00 00 00 00 00 00 00 00 00 00 00 00 00 00 00 00 00 00 00 00 00 EE 0E 0E 60 53 00 00 56 53 00 00 00 10 
00 0A 00 00 DD 0D 60 66 00 00 00 E0 00 0E AE E8 87 0E 30 00 30 00 0B 0B B0 00 E0 CC EC 00 C0 BA 0C 00 7E 0E 00 00 00 CB 00 00 A0 07 80 00 00 00 00 00 00 00 00 00 00 00 00 00 00 00 00 00 00 00 00 00 00 00 00 00 
00 00 00 00 00 00 00 00 00 00 00 00 00 00 00 00 00 00 00 00 00 00 00 00 00 00 00 00 00 00 00 00 00 00 00 00 00 00 00 00 00 00 00 00 E0 EA EB 0E 56 31 05 03 36 31 53 00 00 11 10 03 00 DD BC 0D 36 33 06 00 E0 DE 
0E E0 AE 8A 87 0E 03 30 00 02 0B 0B 0B 0B DE DD CC 0E AC CB 00 00 EE E3 00 00 00 DB BB 0C 77 AA 07 08 00 E0 EE 00 00 00 00 00 00 00 00 00 00 00 00 00 00 00 00 00 00 00 00 00 00 00 00 00 00 00 00 00 00 00 00 00 
00 00 00 00 00 00 00 00 00 00 00 00 00 00 00 00 00 00 00 00 00 00 00 00 00 00 00 00 00 00 00 00 AE EB BB 0E 16 53 13 00 16 11 35 05 A0 13 31 02 DD BB DB 00 36 3E 69 06 BE BA EC E0 8E 77 87 0E 20 30 03 00 0B 0B 
0B 0B DE EE CD 0E AC CB 00 00 00 7E 0E 00 C0 0D CD 00 08 7A 00 08 E0 4E 54 0E 00 00 00 00 00 00 00 00 00 00 00 00 00 00 00 00 00 00 00 00 00 00 00 00 00 00 00 00 00 00 00 00 00 00 00 00 00 00 00 00 00 00 00 00 
00 00 00 00 00 00 00 00 00 00 00 00 00 00 00 00 00 00 00 00 BE EE CC 0E 56 31 05 03 36 31 53 00 3A 12 23 00 00 DD BC 0D 59 3E 3E 09 DE CC ED 00 E0 78 E8 00 00 22 22 00 0B 0B 0B 0B DE EE DE 0E AC CB 00 00 00 E0 
E3 0E BC DB 0B 00 78 00 70 08 4E 54 EE EE 00 00 00 00 00 00 00 00 00 00 00 00 00 00 00 00 00 00 00 00 00 00 00 00 00 00 00 00 00 00 00 00 00 00 00 00 00 00 00 00 00 00 00 00 00 00 00 00 00 00 00 00 00 00 00 00 
00 00 00 00 00 00 00 00 E0 EE EC 0E 60 53 00 00 56 53 00 00 23 30 02 00 00 00 DD 0D EE 59 5E 0E DE DD ED 00 00 8E 0E 00 20 33 33 02 0B 0B B0 00 E0 ED EE 00 C0 BA 0C 00 00 00 7E 0E 00 C0 0B 00 80 77 87 00 E0 45 
55 0E 00 00 00 00 00 00 00 00 00 00 00 00 00 00 00 00 00 00 00 00 00 00 00 00 00 00 00 00 00 00 00 00 00 00 00 00 00 00 00 00 00 00 00 00 00 00 00 00 00 00 00 00 00 00 00 00 00 00 00 00 00 00 00 00 00 EE 0E 0E 
00 56 05 05 60 05 00 00 02 20 00 00 00 00 00 00 E0 EE EE 0E E0 EE 0E 00 00 E0 00 00 20 22 22 02 B0 00 00 00 00 EE 0E 00 00 BC CB 00 00 00 EE 00 00 00 0C 00 00 88 08 00 00 EE EE 00 00 00 00 00 00 00 00 00 00 00 
00 00 00 00 00 00 00 00 00 00 00 00 00 00 00 00 00 00 00 00 00 00 00 00 00 00 00 00 00 00 00 00 00 00 00 00 00 00 00 00 00 00 00 00 00 00 00 00 00 00 00 00 00 00 00 00 00 00 00 00 00 00 00 00 00 00 00 00 00 00 
00 00 00 00 00 00 00 00 00 00 00 00 00 00 00 00 00 00 00 00 00 00 00 00 00 00 00 00 00 00 00 00 00 00 00 00 00 00 00 00 00 00 00 00 00 00 00 00 3E 78 5C 18 B7 81 E5 ED 5D D0 1C F6 F9 5D B0 90 26 98 CF 1A 36 56 
9B 0F E0 CD D6 78 4D A5 BC 9E 0E 5C E2 0D FE E1 30 81 0D C6 69 97 92 D0 EB ED CE D1 E7 1E E1 D7 F1 8D 97 3F 4C 05 55 89 8E 03 8E 76 D0 F9 AC A3 69 B4 A0 49 E1 36 27 EF 7C C5 31 D4 82 DF 46 9D 9D BF 31 47 B6 66 
F5 87 93 28 AC 2E 12 58 D1 A0 C3 0B 7B 9C F7 7A B9 3A 2A B2 8E EF F5 24 77 7A 06 A4 01 9C C7 A0 7C 48 A4 14 57 DA C7 DF 71 68 93 A2 13 24 08 60 35 82 0C 51 48 6B CD 87 B3 BA 17 9D 9F 47 1D 42 C6 51 C2 06 26 1F 
FE 88 6C FD E7 35 9D 73 F0 F5 4D 4D A1 3F 10 EA 0D 36 5A F5 42 1F 88 0D 00 5C CC 33 FC E0 68 B0 E6 17 70 D9 99 6A 30 1B BA 3E F6 71 6C F5 AB 0B 5A 55 ED 2D 70 90 92 4C 88 65 96 79 12 B7 E3 E8 DB ED 4C 53 2E 00 
E3 1F 5C 2A 0A 49 F9 1E 3C F6 83 8C 3C AE E9 E4 DF 99 84 33 76 94 4E CA 46 35 D0 3B F7 46 6C 3E 12 A6 64 4B 0A A8 2F 45 B3 1D DE EB 00 3E 14 4B 00 FF FF FF FF FF FF FF FF FF FF 00 32 44 10 02 00 00 08 00 00 00 
08 00 00 00 00 00 00 00 00 00 00 00 00 00 00 00 00 00 00 00 00 00 00 00 00 00 00 00 00 00 00 00 00 00 00 00 00 00 00 00 00 00 00 00 00 00 00 00 00 00 00 00 00 00 00 00 00 00 00 00 00 00 00 00 00 00 00 00 00 03 
00 00 00 00 00 00 00 00 00 00 00 00 00 00 00 00 00 00 00 00 00 00 00 00 00 00 00 00 00 00 00 00 00 00 00 00 00 00 00 00 00 00 00 00 00 00 00 00 00 00 00 00 00 00 00 00 00 00 00 00 00 00 00 00 00 00 00 00 00 00 
00 00 00 00 00 00 00 00 00 00 00 00 00 00 00 00 00 00 00 00 00 00 00 00 00 00 00 00 00 00 00 00 00 00 00 00 00 00 00 00 00 00 00 00 00 00 00 00 00 00 00 00 00 00 10 00 30 01 00 01 10 00 00 00 00 00 00 00 00 00 
00 00 00 00 00 00 00 00 00 00 00 00 00 00 00 00 00 00 00 00 00 00 00 00 00 00 00 00 00 00 00 00 00 00 00 00 00 00 00 00 00 00 00 00 00 00 00 00 00 00 00 00 00 00 00 00 00 00 00 00 00 00 00 00 00 00 00 00 00 00 
00 00 00 00 00 00 00 00 00 00 00 00 00 00 00 00 00 00 00 00 00 00 00 00 00 00 00 00 00 00 00 00 00 00 00 00 00 00 00 00 00 00 20 31 30 11 10 33 21 00 00 00 00 00 00 00 00 00 00 00 00 00 00 00 00 00 00 00 00 00 
00 00 00 00 00 00 00 00 00 00 00 00 00 00 00 00 00 00 00 00 00 00 00 00 00 00 00 00 00 00 00 00 00 00 00 00 00 00 00 00 00 00 00 00 00 00 00 00 00 00 00 00 00 00 00 00 00 00 00 00 00 00 00 00 00 00 00 00 00 00 
00 00 00 00 00 00 00 00 00 00 00 00 00 00 00 00 00 00 00 00 00 00 00 00 00 00 00 00 00 00 00 13 11 13 11 11 03 00 00 00 00 00 00 00 00 00 00 00 00 00 00 00 00 00 00 00 00 00 00 00 00 00 00 00 00 00 00 00 00 00 
00 00 00 00 00 00 00 00 00 00 00 00 00 00 00 00 00 00 00 00 00 00 00 00 00 00 00 00 00 00 00 00 00 00 00 00 00 00 00 00 00 00 00 00 00 00 00 00 00 00 00 00 00 00 00 00 00 00 00 00 00 00 00 00 00 00 00 00 00 00 
00 00 00 00 00 00 00 00 00 00 00 00 00 00 00 00 00 00 00 32 31 35 31 15 11 02 00 00 00 00 00 00 00 00 00 00 00 00 00 00 00 00 00 00 00 00 00 00 00 00 00 00 00 00 00 00 00 00 00 00 00 00 00 00 00 00 00 00 00 00 
00 00 00 00 00 00 00 00 00 00 00 00 00 00 00 00 00 00 00 00 00 00 00 00 00 00 00 00 00 00 00 00 00 00 00 00 00 00 00 00 00 00 00 00 00 00 00 00 00 00 00 00 00 00 00 00 00 00 00 00 00 00 00 00 00 00 00 00 00 00 
00 00 00 00 00 00 12 11 31 55 53 13 23 00 00 00 00 00 00 00 00 00 00 00 00 00 00 00 00 00 00 00 00 00 00 00 00 00 00 00 00 00 00 00 00 00 00 00 00 00 00 00 00 00 00 00 00 00 00 00 00 00 00 00 00 00 00 00 00 00 
00 00 00 00 00 00 00 00 00 00 00 00 00 00 00 00 00 00 00 00 00 00 00 00 00 00 00 00 00 00 00 00 00 00 00 00 00 00 00 00 00 00 00 00 00 00 00 00 00 00 00 00 00 00 00 00 00 00 00 00 00 00 00 00 20 31 55 55 55 13 
31 00 00 00 00 00 00 00 00 00 00 00 00 00 00 00 00 00 00 00 00 00 00 00 00 00 00 00 00 00 00 00 00 00 00 00 00 00 00 00 00 00 00 00 00 00 00 00 00 00 00 00 00 00 00 00 00 00 00 00 00 00 00 00 00 00 00 00 00 00 
00 00 00 00 00 00 00 00 00 00 00 00 00 00 00 00 00 00 00 00 00 00 00 00 00 00 00 00 00 00 00 00 00 00 00 00 00 00 00 00 00 00 00 00 00 00 00 00 00 00 00 00 00 11 53 55 55 35 11 03 00 00 00 00 00 00 00 00 00 00 
00 00 00 00 00 00 00 00 00 00 00 00 00 00 00 00 00 00 00 00 00 00 00 00 00 00 00 00 00 00 00 00 00 00 00 00 00 00 00 00 00 00 00 00 00 00 00 00 00 00 00 00 00 00 00 00 00 00 00 00 00 00 00 00 00 00 00 00 00 00 
00 00 00 00 00 00 00 00 00 00 00 00 00 00 00 00 00 00 00 00 00 00 00 00 00 00 00 00 00 00 00 00 00 00 00 00 00 00 00 00 13 31 55 55 55 15 11 33 00 00 00 00 00 00 00 00 00 00 00 00 00 00 00 00 00 00 00 00 00 00 
00 00 00 00 00 00 00 00 00 00 00 00 00 00 00 00 00 00 00 00 00 00 00 00 00 00 00 00 00 00 00 00 00 00 00 00 00 00 00 00 00 00 00 00 00 00 00 00 00 00 00 00 00 00 00 00 00 00 00 00 00 00 00 00 00 00 00 00 00 00 
00 00 00 00 00 00 00 00 00 00 00 00 00 00 00 00 00 00 00 00 00 00 00 00 00 00 00 00 30 11 31 55 55 13 22 00 00 00 00 00 00 00 00 00 00 00 00 00 00 00 00 00 00 00 00 00 00 00 00 00 00 00 00 00 00 00 00 00 00 00 
00 00 00 00 00 00 00 00 00 00 00 00 00 00 00 00 00 00 00 00 00 00 00 00 00 00 00 00 00 00 00 00 00 00 00 00 00 00 00 00 00 00 00 00 00 00 00 00 00 00 00 00 00 00 00 00 00 00 00 00 00 00 00 00 00 00 00 00 00 00 
00 00 00 00 00 00 00 00 00 00 00 00 00 00 00 00 00 13 53 35 35 15 03 00 00 00 00 00 00 00 00 00 00 00 00 00 00 00 00 00 00 00 00 00 00 00 00 00 00 00 00 00 00 00 00 00 00 00 00 00 00 00 00 00 00 00 00 00 00 00 
00 00 00 00 00 00 00 00 00 00 00 00 00 00 00 00 00 00 00 00 00 00 00 00 00 00 00 00 00 00 00 00 00 00 00 00 00 00 00 00 00 00 00 00 00 00 00 00 00 00 00 00 00 00 00 00 00 00 00 00 00 00 00 00 00 00 00 00 00 00 
00 00 00 00 00 11 11 13 13 11 21 00 00 00 00 00 00 00 00 00 00 00 00 00 00 00 00 00 00 00 00 00 00 00 00 00 00 00 00 00 00 00 00 00 00 00 00 00 00 00 00 00 00 00 00 00 00 00 00 00 00 00 00 00 00 00 00 00 00 00 
00 00 00 00 00 00 00 00 00 00 00 00 00 00 00 00 00 00 00 00 00 00 00 00 00 00 00 00 00 00 00 00 00 00 00 00 00 00 00 00 00 00 00 00 00 00 00 00 00 00 00 00 00 00 00 00 00 00 00 00 00 00 30 22 13 11 11 11 31 02 
00 00 00 00 00 00 00 00 00 00 00 00 00 00 00 00 00 00 00 00 00 00 00 00 00 00 00 00 00 00 00 00 00 00 00 00 00 00 00 00 00 00 00 00 00 00 00 00 00 00 00 00 00 00 00 00 00 00 00 00 00 00 00 00 00 00 00 00 00 00 
00 00 00 00 00 00 00 00 00 00 00 00 00 00 00 00 00 00 00 00 00 00 00 00 00 00 00 00 00 00 00 00 00 00 00 00 00 00 00 00 00 00 00 00 00 00 00 00 00 00 20 00 12 01 11 23 10 02 00 00 00 00 00 00 00 00 00 00 00 00 
00 00 00 00 00 00 00 00 00 00 00 00 00 00 00 00 00 00 00 00 00 00 00 00 00 00 00 00 00 00 00 00 00 00 00 00 00 00 00 00 00 00 00 00 00 00 00 00 00 00 00 00 00 00 00 00 00 00 00 00 00 00 00 00 00 00 00 00 00 00 
00 00 00 00 00 00 00 00 00 00 00 00 00 00 00 00 00 00 00 00 00 00 00 00 00 00 00 00 00 00 00 00 00 00 00 00 00 00 00 00 30 02 30 02 00 00 00 00 00 00 00 00 00 00 00 00 00 00 00 00 00 00 00 00 00 00 00 00 00 00 
00 00 00 00 00 00 00 00 00 00 00 00 00 00 00 00 00 00 00 00 00 00 00 00 00 00 00 00 00 00 00 00 00 00 00 00 00 00 00 00 00 00 00 00 00 00 00 00 00 00 00 00 00 00 00 00 00 00 00 00 00 00 00 00 00 00 00 00 00 00 
00 00 00 00 00 00 00 00 00 00 00 00 00 00 00 00 00 00 00 00 00 00 00 00 00 00 00 00 20 00 20 00 00 00 00 00 00 00 00 00 00 00 00 00 00 00 00 00 00 00 00 00 00 00 00 00 00 00 00 00 00 00 00 00 00 00 00 00 00 00 
00 00 00 00 00 00 00 00 00 00 00 00 00 00 00 00 00 00 00 00 0B DB 73 6F 00 00 00 00 00 00 FB 00 00 00 FB 00 00 00 00 00 00 00 00 00 A7 00 B3 AB 70 0F 20 18 8D DE 02 D2 CA 68 2E 5E B5 B3 FF 00 00 00 00 00 00 00 
00 00 00 00 00 00 00 00 00 00 00 00 00 00 00 00 00 00 F5 BB 2F B6 52 41 3A ED 41 89 23 AF 92 F1 87 66 B6 00 1D 70 95 B1 00 00 00 00 00 00 F3 00 00 00 F3 00 00 00 00 00 00 00 00 00 A7 00 81 BB 40 2E 12 4F B8 89 
44 A1 89 6B 2C 4E B6 B2 EF 00 00 00 00 00 00 00 00 00 00 00 00 00 00 00 00 00 00 00 00 00 00 00 00 00 F5 9B 0C B6 03 54 4B 9E 42 FB 76 8B A2 F5 86 54 97 00 16 AB E6 DE 50 D5 E4 AE 6B 08 A2 E9 3A E0 D1 8F 74 F5 
20 EB F3 1F 66 40 BC 87 B6 62 EE 06 83 E6 C9 DD 99 AA 1F F7 39 C3 33 BB E0 6B FD 01 A5 7F 6D 5A 71 41 8B 19 5A 5E 25 F7 C4 C8 0E 0C D6 BC 3A C0 3C 9C 1B 42 88 5F 9A 63 25 54 E4 43 1D 85 98 C1 D2 3A F9 77 46 AD 
16 08 06 30 B9 94 CE A7 2D 05 76 49 CB 5D 1B 14 DE 1B 2D 0B 00 FF FF FF FF FF FF FF FF FF FF 00 32 44 11 02 00 00 08 00 00 00 08 00 00 00 00 00 00 00 00 00 00 00 00 00 00 00 00 00 00 00 00 00 00 00 00 00 00 00 
00 00 00 00 00 00 00 00 00 00 00 00 00 00 00 00 00 00 00 00 00 00 00 00 00 00 00 00 00 00 00 00 00 00 00 00 00 00 00 00 00 00 00 00 00 00 00 00 00 00 00 00 00 00 00 00 00 00 00 00 00 00 00 00 00 00 00 00 00 00 
00 00 00 00 00 00 00 00 00 00 00 00 00 00 00 00 00 00 00 00 00 00 00 00 00 00 00 00 00 00 00 00 00 00 00 00 00 00 00 00 00 00 00 00 00 00 00 00 00 00 00 00 00 00 00 00 00 00 00 00 00 00 00 00 00 00 00 00 00 00 
00 00 00 00 00 00 00 00 00 00 00 00 00 00 00 00 00 00 00 00 00 00 00 00 00 00 00 00 00 00 00 00 00 00 00 00 00 00 00 00 00 00 00 00 00 00 00 00 00 00 00 00 00 00 00 00 00 00 00 00 00 00 00 00 00 00 00 00 00 00 
00 00 00 00 00 00 00 00 00 00 00 00 00 00 00 00 00 00 00 00 00 00 00 00 00 00 00 00 00 00 00 00 00 00 00 00 00 00 00 00 00 00 00 00 00 00 00 00 00 00 00 00 00 00 00 00 00 00 00 00 00 00 00 00 00 00 00 00 00 00 
00 00 00 00 00 00 00 00 00 00 00 00 00 00 00 00 00 00 00 00 00 00 00 00 00 00 00 00 00 00 00 00 00 00 00 00 00 00 00 00 00 00 00 00 00 00 00 00 00 00 00 00 00 00 00 00 00 00 00 00 00 00 00 00 00 00 00 00 00 00 
00 00 00 00 00 00 00 00 00 00 00 00 00 00 00 00 00 00 00 00 00 00 00 00 00 00 00 00 00 00 00 00 00 00 00 00 00 00 00 00 00 00 00 00 00 00 00 00 00 00 00 00 00 00 00 00 00 00 00 00 00 00 00 00 00 00 00 00 00 00 
00 00 00 00 00 00 00 00 00 00 00 00 00 00 00 00 00 00 00 00 00 00 00 00 00 00 00 00 00 00 00 00 00 00 00 00 00 00 00 00 00 00 00 00 00 00 00 00 00 00 00 00 00 00 00 00 00 00 00 00 00 00 00 00 00 00 00 00 00 00 
00 00 00 00 00 00 00 00 00 00 00 00 00 00 00 00 00 00 00 00 00 00 00 00 00 00 00 00 00 00 00 00 00 00 00 00 00 00 00 00 00 00 00 00 00 00 00 00 00 00 00 00 00 00 00 00 00 00 00 00 00 00 00 00 00 00 00 00 00 00 
00 00 00 00 00 00 00 00 00 00 00 00 00 00 00 00 00 00 00 00 00 00 00 00 00 00 00 00 00 00 00 00 00 00 00 00 00 00 00 00 00 00 00 00 00 00 00 00 00 00 00 00 00 00 00 00 00 00 00 00 00 00 00 00 00 00 00 00 00 00 
00 00 00 00 00 00 00 00 00 00 00 00 00 00 00 00 00 00 00 00 00 00 00 00 00 00 00 00 00 00 00 00 00 00 00 00 00 00 00 00 00 00 00 00 00 00 00 00 00 00 00 00 00 00 00 00 00 00 00 00 00 00 00 00 00 00 00 00 00 00 
00 00 00 00 00 00 00 00 00 00 00 00 00 00 00 00 00 00 00 00 00 00 00 00 00 00 00 00 00 00 00 00 00 00 00 00 00 00 00 00 00 00 00 00 00 00 00 00 00 00 00 00 00 00 00 00 00 00 00 00 00 00 00 00 00 00 00 00 00 00 
00 00 00 00 00 00 00 00 00 00 00 00 00 00 00 00 00 00 00 00 00 00 00 00 00 00 00 00 00 00 00 00 00 00 00 00 00 00 00 00 00 00 00 00 00 00 00 00 00 00 00 00 00 00 00 00 00 00 00 00 00 00 00 00 00 00 00 00 00 00 
00 00 00 00 00 00 00 00 00 00 00 00 00 00 00 00 00 00 00 00 00 00 00 00 00 00 00 00 00 00 00 00 00 00 00 00 00 00 00 00 00 00 00 00 00 00 00 00 00 00 00 00 00 00 00 00 00 00 00 00 00 00 00 00 00 00 00 00 00 00 
00 00 00 00 00 00 00 00 00 00 00 00 00 00 00 00 00 00 00 00 00 00 00 00 00 00 00 00 00 00 00 00 00 00 00 00 00 00 00 00 00 00 00 00 00 00 00 00 00 00 00 00 00 00 00 00 00 00 00 00 00 00 00 00 00 00 00 00 00 00 
00 00 00 00 00 00 00 00 00 00 00 00 00 00 00 00 00 00 00 00 00 00 00 00 00 00 00 00 00 00 00 00 00 00 00 00 00 00 00 00 00 00 00 00 00 00 00 00 00 00 00 00 00 00 00 00 00 00 00 00 00 00 00 00 00 00 00 00 00 00 
00 00 00 00 00 00 00 00 00 00 00 00 00 00 00 00 00 00 00 00 00 00 00 00 00 00 00 00 00 00 00 00 00 00 00 00 00 00 00 00 00 00 00 00 00 00 00 00 00 00 00 00 00 00 00 00 00 00 00 00 00 00 00 00 00 00 00 00 00 00 
00 00 00 00 00 00 00 00 00 00 00 00 00 00 00 00 00 00 00 00 00 00 00 00 00 00 00 00 00 00 00 00 00 00 00 00 00 00 00 00 00 00 00 00 00 00 00 00 00 00 00 00 00 00 00 00 00 00 00 00 00 00 00 00 00 00 00 00 00 00 
00 00 00 00 00 00 00 00 00 00 00 00 00 00 00 00 00 00 00 00 00 00 00 00 00 00 00 00 00 00 00 00 00 00 00 00 00 00 00 00 00 00 00 00 00 00 00 00 00 00 00 00 00 00 00 00 00 00 00 00 00 00 00 00 00 00 00 00 00 00 
00 00 00 00 00 00 00 00 00 00 00 00 00 00 00 00 00 00 00 00 00 00 00 00 00 00 00 00 00 00 00 00 00 00 00 00 00 00 00 00 00 00 00 00 00 00 00 00 00 00 00 00 00 00 00 00 00 00 00 00 00 00 00 00 00 00 00 00 00 00 
00 00 00 00 00 00 00 00 00 00 00 00 00 00 00 00 00 00 00 00 00 00 00 00 00 00 00 00 00 00 00 00 00 00 00 00 00 00 00 00 00 00 00 00 00 00 00 00 00 00 00 00 00 00 00 00 00 00 00 00 00 00 00 00 00 00 00 00 00 00 
00 00 00 00 00 00 00 00 00 00 00 00 00 00 00 00 00 00 00 00 00 00 00 00 00 00 00 00 00 00 00 00 00 00 00 00 00 00 00 00 00 00 00 00 00 00 00 00 00 00 00 00 00 00 00 00 00 00 00 00 00 00 00 00 00 00 00 00 00 00 
00 00 00 00 00 00 00 00 00 00 00 00 00 00 00 00 00 00 00 00 00 00 00 00 00 00 00 00 00 00 00 00 00 00 00 00 00 00 00 00 00 00 00 00 00 00 00 00 00 00 00 00 00 00 00 00 00 00 00 00 00 00 00 00 00 00 00 00 00 00 
00 00 00 00 00 00 00 00 00 00 00 00 00 00 00 00 00 00 00 00 00 00 00 00 00 00 00 00 00 00 00 00 00 00 00 00 00 00 00 00 00 00 00 00 00 00 00 00 00 00 00 00 00 00 00 00 00 00 00 00 00 00 00 00 00 00 00 00 00 00 
00 00 00 00 00 00 00 00 00 00 00 00 00 00 00 00 00 00 00 00 00 00 00 00 00 00 00 00 00 00 00 00 00 00 00 00 00 00 00 00 00 00 00 00 00 00 00 00 00 00 00 00 00 00 00 00 00 00 00 00 00 00 00 00 00 00 00 00 00 00 
00 00 00 00 00 00 00 00 00 00 00 00 00 00 00 00 00 00 00 00 00 00 00 00 00 00 00 00 00 00 00 00 00 00 00 00 00 00 00 00 00 00 00 00 00 00 00 00 00 00 00 00 00 00 00 00 00 00 00 00 00 00 00 00 00 00 00 00 00 00 
00 00 00 00 00 00 00 00 00 00 00 00 00 00 00 00 00 00 00 00 00 00 00 00 00 00 00 00 00 00 00 00 00 00 00 00 00 00 00 00 00 00 00 00 00 00 00 00 00 00 00 00 00 00 00 00 00 00 00 00 00 00 00 00 00 00 00 00 00 00 
00 00 00 00 00 00 00 00 00 00 00 00 00 00 00 00 00 00 00 00 00 00 00 00 00 00 00 00 00 00 00 00 00 00 00 00 00 00 00 00 00 00 00 00 00 00 00 00 00 00 00 00 00 00 00 00 00 00 00 00 00 00 00 00 00 00 00 00 00 00 
00 00 00 00 00 00 00 00 00 00 00 00 00 00 00 00 00 00 00 00 00 00 00 00 00 00 00 00 00 00 00 00 00 00 00 00 00 00 00 00 00 00 00 00 00 00 00 00 00 00 00 00 00 00 00 00 00 00 00 00 00 00 00 00 00 00 00 00 00 00 
00 00 00 00 00 00 00 00 00 00 00 00 00 00 00 00 00 00 00 00 00 00 00 00 00 00 00 00 00 00 00 00 00 00 00 00 00 00 00 00 00 00 00 00 00 00 00 00 00 00 00 00 00 00 00 00 00 00 00 00 00 00 0B 88 81 94 00 00 00 00 
00 00 FB 00 00 00 FB 00 00 00 00 00 00 00 00 00 00 00 00 00 00 00 00 00 00 00 00 00 00 00 00 00 00 00 00 00 00 00 00 00 00 00 00 00 00 00 00 00 00 00 00 00 00 00 00 00 00 00 00 00 00 00 00 00 00 00 00 00 00 00 
00 00 00 00 00 00 00 00 1D 85 9E A1 00 00 00 00 00 00 F3 00 00 00 F3 00 00 00 00 00 00 00 00 00 00 00 00 00 00 00 00 00 00 00 00 00 00 00 00 00 00 00 00 00 00 00 00 00 00 00 00 00 00 00 00 00 00 00 00 00 00 00 
00 00 00 00 00 00 00 00 00 00 00 00 00 00 00 00 00 00 00 00 00 00 00 00 16 0D 1F 35 00 00 00 00 00 00 00 00 00 00 00 00 00 00 9E A1 8E 61 72 E3 62 23 00 00 00 00 00 00 00 00 00 00 00 00 00 00 00 00 B9 00 D2 00 
A5 00 67 00 A9 00 00 00 00 00 00 00 00 00 00 00 00 00 00 00 00 00 00 00 1F 35 1B 48 70 53 74 2E 00 00 00 00 00 00 00 00 00 00 00 00 00 00 00 00 42 00 21 00 56 00 94 00 A1 00 00 00 00 00 00 FF FF FF FF FF FF FF 
FF FF FF 00 32 44 12 02 00 00 08 00 00 00 08 00 00 00 00 00 00 00 00 00 00 00 00 00 00 00 00 00 00 00 00 00 00 00 00 00 00 00 00 00 00 00 00 00 00 00 00 00 00 00 00 00 00 00 00 00 00 00 00 00 00 00 00 00 00 00 
00 00 00 00 00 00 00 00 00 00 00 00 00 00 00 00 00 00 00 00 00 00 00 00 00 00 00 00 00 00 00 00 00 00 00 00 00 00 00 00 00 00 00 00 00 00 00 00 00 00 00 00 00 00 00 00 00 00 00 00 00 00 00 00 00 00 00 00 00 00 
00 00 00 00 00 00 00 00 00 00 00 00 00 00 00 00 00 00 00 00 00 00 00 00 00 00 00 00 00 00 00 00 00 00 00 00 00 00 00 00 00 00 00 00 00 00 00 00 00 00 00 00 00 00 00 00 00 00 00 00 00 00 00 00 00 00 00 00 00 00 
00 00 00 00 00 00 00 00 00 00 00 00 00 00 00 00 00 00 00 00 00 00 00 00 00 00 00 00 00 00 00 00 00 00 00 00 00 00 00 00 00 00 00 00 00 00 00 00 00 00 00 00 00 00 00 00 00 00 00 00 00 00 00 00 00 00 00 00 00 00 
00 00 00 00 00 00 00 00 00 00 00 00 00 00 00 00 00 00 00 00 00 00 00 00 00 00 00 00 00 00 00 00 00 00 00 00 00 00 00 00 00 00 00 00 00 00 00 00 00 00 00 00 00 00 00 00 00 00 00 00 00 00 00 00 00 00 00 00 00 00 
00 00 00 00 00 00 00 00 00 00 00 00 00 00 00 00 00 00 00 00 00 00 00 00 00 00 00 00 00 00 00 00 00 00 00 00 00 00 00 00 00 00 00 00 00 00 00 00 00 00 00 00 00 00 00 00 00 00 00 00 00 00 00 00 00 00 00 00 00 00 
00 00 00 00 00 00 00 00 00 00 00 00 00 00 00 00 00 00 00 00 00 00 00 00 00 00 00 00 00 00 00 00 00 00 00 00 00 00 00 00 00 00 00 00 00 00 00 00 00 00 00 00 00 00 00 00 00 00 00 00 00 00 00 00 00 00 00 00 00 00 
00 00 00 00 00 00 00 00 00 00 00 00 00 00 00 00 00 00 00 00 00 00 00 00 00 00 00 00 00 00 00 00 00 00 00 00 00 00 00 00 00 00 00 00 00 00 00 00 00 00 00 00 00 00 00 00 00 00 00 00 00 00 00 00 00 00 00 00 00 00 
00 00 00 00 00 00 00 00 00 00 00 00 00 00 00 00 00 00 00 00 00 00 00 00 00 00 00 00 00 00 00 00 00 00 00 00 00 00 00 00 00 00 00 00 00 00 00 00 00 00 00 00 00 00 00 00 00 00 00 00 00 00 00 00 00 00 00 00 00 00 
00 00 00 00 00 00 00 00 00 00 00 00 00 00 00 00 00 00 00 00 00 00 00 00 00 00 00 00 00 00 00 00 00 00 00 00 00 00 00 00 00 00 00 00 00 00 00 00 00 00 00 00 00 00 00 00 00 00 00 00 00 00 00 00 00 00 00 00 00 00 
00 00 00 00 00 00 00 00 00 00 00 00 00 00 00 00 00 00 00 00 00 00 00 00 00 00 00 00 00 00 00 00 00 00 00 00 00 00 00 00 00 00 00 00 00 00 00 00 00 00 00 00 00 00 00 00 00 00 00 00 00 00 00 00 00 00 00 00 00 00 
00 00 00 00 00 00 00 00 00 00 00 00 00 00 00 00 00 00 00 00 00 00 00 00 00 00 00 00 00 00 00 00 00 00 00 00 00 00 00 00 00 00 00 00 00 00 00 00 00 00 00 00 00 00 00 00 00 00 00 00 00 00 00 00 00 00 00 00 00 00 
00 00 00 00 00 00 00 00 00 00 00 00 00 00 00 00 00 00 00 00 00 00 00 00 00 00 00 00 00 00 00 00 00 00 00 00 00 00 00 00 00 00 00 00 00 00 00 00 00 00 00 00 00 00 00 00 00 00 00 00 00 00 00 00 00 00 00 00 00 00 
00 00 00 00 00 00 00 00 00 00 00 00 00 00 00 00 00 00 00 00 00 00 00 00 00 00 00 00 00 00 00 00 00 00 00 00 00 00 00 00 00 00 00 00 00 00 00 00 00 00 00 00 00 00 00 00 00 00 00 00 00 00 00 00 00 00 00 00 00 00 
00 00 00 00 00 00 00 00 00 00 00 00 00 00 00 00 00 00 00 00 00 00 00 00 00 00 00 00 00 00 00 00 00 00 00 00 00 00 00 00 00 00 00 00 00 00 00 00 00 00 00 00 00 00 00 00 00 00 00 00 00 00 00 00 00 00 00 00 00 00 
00 00 00 00 00 00 00 00 00 00 00 00 00 00 00 00 00 00 00 00 00 00 00 00 00 00 00 00 00 00 00 00 00 00 00 00 00 00 00 00 00 00 00 00 00 00 00 00 00 00 00 00 00 00 00 00 00 00 00 00 00 00 00 00 00 00 00 00 00 00 
00 00 00 00 00 00 00 00 00 00 00 00 00 00 00 00 00 00 00 00 00 00 00 00 00 00 00 00 00 00 00 00 00 00 00 00 00 00 00 00 00 00 00 00 00 00 00 00 00 00 00 00 00 00 00 00 00 00 00 00 00 00 00 00 00 00 00 00 00 00 
00 00 00 00 00 00 00 00 00 00 00 00 00 00 00 00 00 00 00 00 00 00 00 00 00 00 00 00 00 00 00 00 00 00 00 00 00 00 00 00 00 00 00 00 00 00 00 00 00 00 00 00 00 00 00 00 00 00 00 00 00 00 00 00 00 00 00 00 00 00 
00 00 00 00 00 00 00 00 00 00 00 00 00 00 00 00 00 00 00 00 00 00 00 00 00 00 00 00 00 00 00 00 00 00 00 00 00 00 00 00 00 00 00 00 00 00 00 00 00 00 00 00 00 00 00 00 00 00 00 00 00 00 00 00 00 00 00 00 00 00 
00 00 00 00 00 00 00 00 00 00 00 00 00 00 00 00 00 00 00 00 00 00 00 00 00 00 00 00 00 00 00 00 00 00 00 00 00 00 00 00 00 00 00 00 00 00 00 00 00 00 00 00 00 00 00 00 00 00 00 00 00 00 00 00 00 00 00 00 00 00 
00 00 00 00 00 00 00 00 00 00 00 00 00 00 00 00 00 00 00 00 00 00 00 00 00 00 00 00 00 00 00 00 00 00 00 00 00 00 00 00 00 00 00 00 00 00 00 00 00 00 00 00 00 00 00 00 00 00 00 00 00 00 00 00 00 00 00 00 00 00 
00 00 00 00 00 00 00 00 00 00 00 00 00 00 00 00 00 00 00 00 00 00 00 00 00 00 00 00 00 00 00 00 00 00 00 00 00 00 00 00 00 00 00 00 00 00 00 00 00 00 00 00 00 00 00 00 00 00 00 00 00 00 00 00 00 00 00 00 00 00 
00 00 00 00 00 00 00 00 00 00 00 00 00 00 00 00 00 00 00 00 00 00 00 00 00 00 00 00 00 00 00 00 00 00 00 00 00 00 00 00 00 00 00 00 00 00 00 00 00 00 00 00 00 00 00 00 00 00 00 00 00 00 00 00 00 00 00 00 00 00 
00 00 00 00 00 00 00 00 00 00 00 00 00 00 00 00 00 00 00 00 00 00 00 00 00 00 00 00 00 00 00 00 00 00 00 00 00 00 00 00 00 00 00 00 00 00 00 00 00 00 00 00 00 00 00 00 00 00 00 00 00 00 00 00 00 00 00 00 00 00 
00 00 00 00 00 00 00 00 00 00 00 00 00 00 00 00 00 00 00 00 00 00 00 00 00 00 00 00 00 00 00 00 00 00 00 00 00 00 00 00 00 00 00 00 00 00 00 00 00 00 00 00 00 00 00 00 00 00 00 00 00 00 00 00 00 00 00 00 00 00 
00 00 00 00 00 00 00 00 00 00 00 00 00 00 00 00 00 00 00 00 00 00 00 00 00 00 00 00 00 00 00 00 00 00 00 00 00 00 00 00 00 00 00 00 00 00 00 00 00 00 00 00 00 00 00 00 00 00 00 00 00 00 00 00 00 00 00 00 00 00 
00 00 00 00 00 00 00 00 00 00 00 00 00 00 00 00 00 00 00 00 00 00 00 00 00 00 00 00 00 00 00 00 00 00 00 00 00 00 00 00 00 00 00 00 00 00 00 00 00 00 00 00 00 00 00 00 00 00 00 00 00 00 00 00 00 00 00 00 00 00 
00 00 00 00 00 00 00 00 00 00 00 00 00 00 00 00 00 00 00 00 00 00 00 00 00 00 00 00 00 00 00 00 00 00 00 00 00 00 00 00 00 00 00 00 00 00 00 00 00 00 00 00 00 00 00 00 00 00 00 00 00 00 00 00 00 00 00 00 00 00 
00 00 00 00 00 00 00 00 00 00 00 00 00 00 00 00 00 00 00 00 00 00 00 00 00 00 00 00 00 00 00 00 00 00 00 00 00 00 00 00 00 00 00 00 00 00 00 00 00 00 00 00 00 00 00 00 00 00 00 00 00 00 00 00 00 00 00 00 00 00 
00 00 00 00 00 00 00 00 00 00 00 00 00 00 00 00 00 00 00 00 00 00 00 00 00 00 00 00 00 00 00 00 00 00 0B 88 81 94 00 00 00 00 00 00 FB 00 00 00 FB 00 00 00 00 00 00 00 00 00 00 00 00 00 00 00 00 00 00 00 00 00 
00 00 00 00 00 00 00 00 00 00 00 00 00 00 00 00 00 00 00 00 00 00 00 00 00 00 00 00 00 00 00 00 00 00 00 00 00 00 00 00 00 00 00 00 00 00 00 00 00 00 1D 85 9E A1 00 00 00 00 00 00 F3 00 00 00 F3 00 00 00 00 00 
00 00 00 00 00 00 00 00 00 00 00 00 00 00 00 00 00 00 00 00 00 00 00 00 00 00 00 00 00 00 00 00 00 00 00 00 00 00 00 00 00 00 00 00 00 00 00 00 00 00 00 00 00 00 00 00 00 00 00 00 00 00 00 00 00 00 16 0D 1F 35 
00 00 00 00 00 00 00 00 00 00 00 00 00 00 9E A1 8E 61 72 E3 62 23 00 00 00 00 00 00 00 00 00 00 00 00 00 00 00 00 B9 00 D2 00 A5 00 67 00 A9 00 00 00 00 00 00 00 00 00 00 00 00 00 00 00 00 00 00 00 1F 35 1B 48 
70 53 74 2E 00 00 00 00 00 00 00 00 00 00 00 00 00 00 00 00 42 00 21 00 56 00 94 00 A1 00 00 00 00 00 00 FF FF FF FF FF FF FF FF FF FF 00 32 44 13 02 00 00 08 00 00 00 08 00 00 00 00 00 00 00 00 00 00 00 00 00 
00 00 00 00 00 00 00 00 00 00 00 00 00 00 00 00 00 00 00 00 00 00 00 00 00 00 00 00 00 00 00 00 00 00 00 00 00 00 00 00 00 00 00 00 00 00 00 00 00 00 00 00 00 00 00 00 00 00 00 00 00 00 00 00 00 00 00 00 00 00 
00 00 00 00 00 00 00 00 00 00 00 00 00 00 00 00 00 00 00 00 00 00 00 00 00 00 00 00 00 00 00 00 00 00 00 00 00 00 00 00 00 00 00 00 00 00 00 00 00 00 00 00 00 00 00 00 00 00 00 00 00 00 00 00 00 00 00 00 00 00 
00 00 00 00 00 00 00 00 00 00 00 00 00 00 00 00 00 00 00 00 00 00 00 00 00 00 00 00 00 00 00 00 00 00 00 00 00 00 00 00 00 00 00 00 00 00 00 00 00 00 00 00 00 00 00 00 00 00 00 00 00 00 00 00 00 00 00 00 00 00 
00 00 00 00 00 00 00 00 00 00 00 00 00 00 00 00 00 00 00 00 00 00 00 00 00 00 00 00 00 00 00 00 00 00 00 00 00 00 00 00 00 00 00 00 00 00 00 00 00 00 00 00 00 00 00 00 00 00 00 00 00 00 00 00 00 00 00 00 00 00 
00 00 00 00 00 00 00 00 00 00 00 00 00 00 00 00 00 00 00 00 00 00 00 00 00 00 00 00 00 00 00 00 00 00 00 00 00 00 00 00 00 00 00 00 00 00 00 00 00 00 00 00 00 00 00 00 00 00 00 00 00 00 00 00 00 00 00 00 00 00 
00 00 00 00 00 00 00 00 00 00 00 00 00 00 00 00 00 00 00 00 00 00 00 00 00 00 00 00 00 00 00 00 00 00 00 00 00 00 00 00 00 00 00 00 00 00 00 00 00 00 00 00 00 00 00 00 00 00 00 00 00 00 00 00 00 00 00 00 00 00 
00 00 00 00 00 00 00 00 00 00 00 00 00 00 00 00 00 00 00 00 00 00 00 00 00 00 00 00 00 00 00 00 00 00 00 00 00 00 00 00 00 00 00 00 00 00 00 00 00 00 00 00 00 00 00 00 00 00 00 00 00 00 00 00 00 00 00 00 00 00 
00 00 00 00 00 00 00 00 00 00 00 00 00 00 00 00 00 00 00 00 00 00 00 00 00 00 00 00 00 00 00 00 00 00 00 00 00 00 00 00 00 00 00 00 00 00 00 00 00 00 00 00 00 00 00 00 00 00 00 00 00 00 00 00 00 00 00 00 00 00 
00 00 00 00 00 00 00 00 00 00 00 00 00 00 00 00 00 00 00 00 00 00 00 00 00 00 00 00 00 00 00 00 00 00 00 00 00 00 00 00 00 00 00 00 00 00 00 00 00 00 00 00 00 00 00 00 00 00 00 00 00 00 00 00 00 00 00 00 00 00 
00 00 00 00 00 00 00 00 00 00 00 00 00 00 00 00 00 00 00 00 00 00 00 00 00 00 00 00 00 00 00 00 00 00 00 00 00 00 00 00 00 00 00 00 00 00 00 00 00 00 00 00 00 00 00 00 00 00 00 00 00 00 00 00 00 00 00 00 00 00 
00 00 00 00 00 00 00 00 00 00 00 00 00 00 00 00 00 00 00 00 00 00 00 00 00 00 00 00 00 00 00 00 00 00 00 00 00 00 00 00 00 00 00 00 00 00 00 00 00 00 00 00 00 00 00 00 00 00 00 00 00 00 00 00 00 00 00 00 00 00 
00 00 00 00 00 00 00 00 00 00 00 00 00 00 00 00 00 00 00 00 00 00 00 00 00 00 00 00 00 00 00 00 00 00 00 00 00 00 00 00 00 00 00 00 00 00 00 00 00 00 00 00 00 00 00 00 00 00 00 00 00 00 00 00 00 00 00 00 00 00 
00 00 00 00 00 00 00 00 00 00 00 00 00 00 00 00 00 00 00 00 00 00 00 00 00 00 00 00 00 00 00 00 00 00 00 00 00 00 00 00 00 00 00 00 00 00 00 00 00 00 00 00 00 00 00 00 00 00 00 00 00 00 00 00 00 00 00 00 00 00 
00 00 00 00 00 00 00 00 00 00 00 00 00 00 00 00 00 00 00 00 00 00 00 00 00 00 00 00 00 00 00 00 00 00 00 00 00 00 00 00 00 00 00 00 00 00 00 00 00 00 00 00 00 00 00 00 00 00 00 00 00 00 00 00 00 00 00 00 00 00 
00 00 00 00 00 00 00 00 00 00 00 00 00 00 00 00 00 00 00 00 00 00 00 00 00 00 00 00 00 00 00 00 00 00 00 00 00 00 00 00 00 00 00 00 00 00 00 00 00 00 00 00 00 00 00 00 00 00 00 00 00 00 00 00 00 00 00 00 00 00 
00 00 00 00 00 00 00 00 00 00 00 00 00 00 00 00 00 00 00 00 00 00 00 00 00 00